ARM GAS  /tmp/ccYK2ZYU.s 			page 1


   1              		.cpu cortex-m4
   2              		.eabi_attribute 27, 1
   3              		.eabi_attribute 28, 1
   4              		.eabi_attribute 20, 1
   5              		.eabi_attribute 21, 1
   6              		.eabi_attribute 23, 3
   7              		.eabi_attribute 24, 1
   8              		.eabi_attribute 25, 1
   9              		.eabi_attribute 26, 1
  10              		.eabi_attribute 30, 1
  11              		.eabi_attribute 34, 1
  12              		.eabi_attribute 18, 4
  13              		.file	"stm32l4xx_hal.c"
  14              		.text
  15              	.Ltext0:
  16              		.cfi_sections	.debug_frame
  17              		.section	.text.HAL_MspInit,"ax",%progbits
  18              		.align	1
  19              		.weak	HAL_MspInit
  20              		.arch armv7e-m
  21              		.syntax unified
  22              		.thumb
  23              		.thumb_func
  24              		.fpu fpv4-sp-d16
  26              	HAL_MspInit:
  27              	.LFB294:
  28              		.file 1 "Drivers/STM32L4xx_HAL_Driver/Src/stm32l4xx_hal.c"
   1:Drivers/STM32L4xx_HAL_Driver/Src/stm32l4xx_hal.c **** /**
   2:Drivers/STM32L4xx_HAL_Driver/Src/stm32l4xx_hal.c ****   ******************************************************************************
   3:Drivers/STM32L4xx_HAL_Driver/Src/stm32l4xx_hal.c ****   * @file    stm32l4xx_hal.c
   4:Drivers/STM32L4xx_HAL_Driver/Src/stm32l4xx_hal.c ****   * @author  MCD Application Team
   5:Drivers/STM32L4xx_HAL_Driver/Src/stm32l4xx_hal.c ****   * @brief   HAL module driver.
   6:Drivers/STM32L4xx_HAL_Driver/Src/stm32l4xx_hal.c ****   *          This is the common part of the HAL initialization
   7:Drivers/STM32L4xx_HAL_Driver/Src/stm32l4xx_hal.c ****   *
   8:Drivers/STM32L4xx_HAL_Driver/Src/stm32l4xx_hal.c ****   @verbatim
   9:Drivers/STM32L4xx_HAL_Driver/Src/stm32l4xx_hal.c ****   ==============================================================================
  10:Drivers/STM32L4xx_HAL_Driver/Src/stm32l4xx_hal.c ****                      ##### How to use this driver #####
  11:Drivers/STM32L4xx_HAL_Driver/Src/stm32l4xx_hal.c ****   ==============================================================================
  12:Drivers/STM32L4xx_HAL_Driver/Src/stm32l4xx_hal.c ****     [..]
  13:Drivers/STM32L4xx_HAL_Driver/Src/stm32l4xx_hal.c ****     The common HAL driver contains a set of generic and common APIs that can be
  14:Drivers/STM32L4xx_HAL_Driver/Src/stm32l4xx_hal.c ****     used by the PPP peripheral drivers and the user to start using the HAL.
  15:Drivers/STM32L4xx_HAL_Driver/Src/stm32l4xx_hal.c ****     [..]
  16:Drivers/STM32L4xx_HAL_Driver/Src/stm32l4xx_hal.c ****     The HAL contains two APIs' categories:
  17:Drivers/STM32L4xx_HAL_Driver/Src/stm32l4xx_hal.c ****          (+) Common HAL APIs
  18:Drivers/STM32L4xx_HAL_Driver/Src/stm32l4xx_hal.c ****          (+) Services HAL APIs
  19:Drivers/STM32L4xx_HAL_Driver/Src/stm32l4xx_hal.c **** 
  20:Drivers/STM32L4xx_HAL_Driver/Src/stm32l4xx_hal.c ****   @endverbatim
  21:Drivers/STM32L4xx_HAL_Driver/Src/stm32l4xx_hal.c ****   ******************************************************************************
  22:Drivers/STM32L4xx_HAL_Driver/Src/stm32l4xx_hal.c ****   * @attention
  23:Drivers/STM32L4xx_HAL_Driver/Src/stm32l4xx_hal.c ****   *
  24:Drivers/STM32L4xx_HAL_Driver/Src/stm32l4xx_hal.c ****   * <h2><center>&copy; Copyright (c) 2017 STMicroelectronics.
  25:Drivers/STM32L4xx_HAL_Driver/Src/stm32l4xx_hal.c ****   * All rights reserved.</center></h2>
  26:Drivers/STM32L4xx_HAL_Driver/Src/stm32l4xx_hal.c ****   *
  27:Drivers/STM32L4xx_HAL_Driver/Src/stm32l4xx_hal.c ****   * This software component is licensed by ST under BSD 3-Clause license,
  28:Drivers/STM32L4xx_HAL_Driver/Src/stm32l4xx_hal.c ****   * the "License"; You may not use this file except in compliance with the
  29:Drivers/STM32L4xx_HAL_Driver/Src/stm32l4xx_hal.c ****   * License. You may obtain a copy of the License at:
  30:Drivers/STM32L4xx_HAL_Driver/Src/stm32l4xx_hal.c ****   *                        opensource.org/licenses/BSD-3-Clause
ARM GAS  /tmp/ccYK2ZYU.s 			page 2


  31:Drivers/STM32L4xx_HAL_Driver/Src/stm32l4xx_hal.c ****   *
  32:Drivers/STM32L4xx_HAL_Driver/Src/stm32l4xx_hal.c ****   ******************************************************************************
  33:Drivers/STM32L4xx_HAL_Driver/Src/stm32l4xx_hal.c ****   */
  34:Drivers/STM32L4xx_HAL_Driver/Src/stm32l4xx_hal.c **** 
  35:Drivers/STM32L4xx_HAL_Driver/Src/stm32l4xx_hal.c **** /* Includes ------------------------------------------------------------------*/
  36:Drivers/STM32L4xx_HAL_Driver/Src/stm32l4xx_hal.c **** #include "stm32l4xx_hal.h"
  37:Drivers/STM32L4xx_HAL_Driver/Src/stm32l4xx_hal.c **** 
  38:Drivers/STM32L4xx_HAL_Driver/Src/stm32l4xx_hal.c **** /** @addtogroup STM32L4xx_HAL_Driver
  39:Drivers/STM32L4xx_HAL_Driver/Src/stm32l4xx_hal.c ****   * @{
  40:Drivers/STM32L4xx_HAL_Driver/Src/stm32l4xx_hal.c ****   */
  41:Drivers/STM32L4xx_HAL_Driver/Src/stm32l4xx_hal.c **** 
  42:Drivers/STM32L4xx_HAL_Driver/Src/stm32l4xx_hal.c **** /** @defgroup HAL HAL
  43:Drivers/STM32L4xx_HAL_Driver/Src/stm32l4xx_hal.c ****   * @brief HAL module driver
  44:Drivers/STM32L4xx_HAL_Driver/Src/stm32l4xx_hal.c ****   * @{
  45:Drivers/STM32L4xx_HAL_Driver/Src/stm32l4xx_hal.c ****   */
  46:Drivers/STM32L4xx_HAL_Driver/Src/stm32l4xx_hal.c **** 
  47:Drivers/STM32L4xx_HAL_Driver/Src/stm32l4xx_hal.c **** #ifdef HAL_MODULE_ENABLED
  48:Drivers/STM32L4xx_HAL_Driver/Src/stm32l4xx_hal.c **** 
  49:Drivers/STM32L4xx_HAL_Driver/Src/stm32l4xx_hal.c **** /* Private typedef -----------------------------------------------------------*/
  50:Drivers/STM32L4xx_HAL_Driver/Src/stm32l4xx_hal.c **** /* Private define ------------------------------------------------------------*/
  51:Drivers/STM32L4xx_HAL_Driver/Src/stm32l4xx_hal.c **** /**
  52:Drivers/STM32L4xx_HAL_Driver/Src/stm32l4xx_hal.c ****  * @brief STM32L4xx HAL Driver version number
  53:Drivers/STM32L4xx_HAL_Driver/Src/stm32l4xx_hal.c ****    */
  54:Drivers/STM32L4xx_HAL_Driver/Src/stm32l4xx_hal.c **** #define STM32L4XX_HAL_VERSION_MAIN   (0x01U) /*!< [31:24] main version */
  55:Drivers/STM32L4xx_HAL_Driver/Src/stm32l4xx_hal.c **** #define STM32L4XX_HAL_VERSION_SUB1   (0x0CU) /*!< [23:16] sub1 version */
  56:Drivers/STM32L4xx_HAL_Driver/Src/stm32l4xx_hal.c **** #define STM32L4XX_HAL_VERSION_SUB2   (0x00U) /*!< [15:8]  sub2 version */
  57:Drivers/STM32L4xx_HAL_Driver/Src/stm32l4xx_hal.c **** #define STM32L4XX_HAL_VERSION_RC     (0x00U) /*!< [7:0]  release candidate */
  58:Drivers/STM32L4xx_HAL_Driver/Src/stm32l4xx_hal.c **** #define STM32L4XX_HAL_VERSION        ((STM32L4XX_HAL_VERSION_MAIN  << 24U)\
  59:Drivers/STM32L4xx_HAL_Driver/Src/stm32l4xx_hal.c ****                                       |(STM32L4XX_HAL_VERSION_SUB1 << 16U)\
  60:Drivers/STM32L4xx_HAL_Driver/Src/stm32l4xx_hal.c ****                                       |(STM32L4XX_HAL_VERSION_SUB2 << 8U)\
  61:Drivers/STM32L4xx_HAL_Driver/Src/stm32l4xx_hal.c ****                                       |(STM32L4XX_HAL_VERSION_RC))
  62:Drivers/STM32L4xx_HAL_Driver/Src/stm32l4xx_hal.c **** 
  63:Drivers/STM32L4xx_HAL_Driver/Src/stm32l4xx_hal.c **** #if defined(VREFBUF)
  64:Drivers/STM32L4xx_HAL_Driver/Src/stm32l4xx_hal.c **** #define VREFBUF_TIMEOUT_VALUE     10U   /* 10 ms (to be confirmed) */
  65:Drivers/STM32L4xx_HAL_Driver/Src/stm32l4xx_hal.c **** #endif /* VREFBUF */
  66:Drivers/STM32L4xx_HAL_Driver/Src/stm32l4xx_hal.c **** 
  67:Drivers/STM32L4xx_HAL_Driver/Src/stm32l4xx_hal.c **** /* ------------ SYSCFG registers bit address in the alias region ------------ */
  68:Drivers/STM32L4xx_HAL_Driver/Src/stm32l4xx_hal.c **** #define SYSCFG_OFFSET             (SYSCFG_BASE - PERIPH_BASE)
  69:Drivers/STM32L4xx_HAL_Driver/Src/stm32l4xx_hal.c **** /* ---  MEMRMP Register ---*/
  70:Drivers/STM32L4xx_HAL_Driver/Src/stm32l4xx_hal.c **** /* Alias word address of FB_MODE bit */
  71:Drivers/STM32L4xx_HAL_Driver/Src/stm32l4xx_hal.c **** #define MEMRMP_OFFSET             SYSCFG_OFFSET
  72:Drivers/STM32L4xx_HAL_Driver/Src/stm32l4xx_hal.c **** #define FB_MODE_BitNumber         8U
  73:Drivers/STM32L4xx_HAL_Driver/Src/stm32l4xx_hal.c **** #define FB_MODE_BB                (PERIPH_BB_BASE + (MEMRMP_OFFSET * 32U) + (FB_MODE_BitNumber * 4U
  74:Drivers/STM32L4xx_HAL_Driver/Src/stm32l4xx_hal.c **** 
  75:Drivers/STM32L4xx_HAL_Driver/Src/stm32l4xx_hal.c **** /* --- SCSR Register ---*/
  76:Drivers/STM32L4xx_HAL_Driver/Src/stm32l4xx_hal.c **** /* Alias word address of SRAM2ER bit */
  77:Drivers/STM32L4xx_HAL_Driver/Src/stm32l4xx_hal.c **** #define SCSR_OFFSET               (SYSCFG_OFFSET + 0x18U)
  78:Drivers/STM32L4xx_HAL_Driver/Src/stm32l4xx_hal.c **** #define BRER_BitNumber            0U
  79:Drivers/STM32L4xx_HAL_Driver/Src/stm32l4xx_hal.c **** #define SCSR_SRAM2ER_BB           (PERIPH_BB_BASE + (SCSR_OFFSET * 32U) + (BRER_BitNumber * 4U))
  80:Drivers/STM32L4xx_HAL_Driver/Src/stm32l4xx_hal.c **** 
  81:Drivers/STM32L4xx_HAL_Driver/Src/stm32l4xx_hal.c **** /* Private macro -------------------------------------------------------------*/
  82:Drivers/STM32L4xx_HAL_Driver/Src/stm32l4xx_hal.c **** /* Private variables ---------------------------------------------------------*/
  83:Drivers/STM32L4xx_HAL_Driver/Src/stm32l4xx_hal.c **** /* Private function prototypes -----------------------------------------------*/
  84:Drivers/STM32L4xx_HAL_Driver/Src/stm32l4xx_hal.c **** 
  85:Drivers/STM32L4xx_HAL_Driver/Src/stm32l4xx_hal.c **** /* Exported variables --------------------------------------------------------*/
  86:Drivers/STM32L4xx_HAL_Driver/Src/stm32l4xx_hal.c **** 
  87:Drivers/STM32L4xx_HAL_Driver/Src/stm32l4xx_hal.c **** /** @defgroup HAL_Exported_Variables HAL Exported Variables
ARM GAS  /tmp/ccYK2ZYU.s 			page 3


  88:Drivers/STM32L4xx_HAL_Driver/Src/stm32l4xx_hal.c ****   * @{
  89:Drivers/STM32L4xx_HAL_Driver/Src/stm32l4xx_hal.c ****   */
  90:Drivers/STM32L4xx_HAL_Driver/Src/stm32l4xx_hal.c **** __IO uint32_t uwTick;
  91:Drivers/STM32L4xx_HAL_Driver/Src/stm32l4xx_hal.c **** uint32_t uwTickPrio = (1UL << __NVIC_PRIO_BITS); /* Invalid priority */
  92:Drivers/STM32L4xx_HAL_Driver/Src/stm32l4xx_hal.c **** HAL_TickFreqTypeDef uwTickFreq = HAL_TICK_FREQ_DEFAULT;  /* 1KHz */
  93:Drivers/STM32L4xx_HAL_Driver/Src/stm32l4xx_hal.c **** /**
  94:Drivers/STM32L4xx_HAL_Driver/Src/stm32l4xx_hal.c ****   * @}
  95:Drivers/STM32L4xx_HAL_Driver/Src/stm32l4xx_hal.c ****   */
  96:Drivers/STM32L4xx_HAL_Driver/Src/stm32l4xx_hal.c **** 
  97:Drivers/STM32L4xx_HAL_Driver/Src/stm32l4xx_hal.c **** /* Exported functions --------------------------------------------------------*/
  98:Drivers/STM32L4xx_HAL_Driver/Src/stm32l4xx_hal.c **** 
  99:Drivers/STM32L4xx_HAL_Driver/Src/stm32l4xx_hal.c **** /** @defgroup HAL_Exported_Functions HAL Exported Functions
 100:Drivers/STM32L4xx_HAL_Driver/Src/stm32l4xx_hal.c ****   * @{
 101:Drivers/STM32L4xx_HAL_Driver/Src/stm32l4xx_hal.c ****   */
 102:Drivers/STM32L4xx_HAL_Driver/Src/stm32l4xx_hal.c **** 
 103:Drivers/STM32L4xx_HAL_Driver/Src/stm32l4xx_hal.c **** /** @defgroup HAL_Exported_Functions_Group1 Initialization and de-initialization Functions
 104:Drivers/STM32L4xx_HAL_Driver/Src/stm32l4xx_hal.c ****  *  @brief    Initialization and de-initialization functions
 105:Drivers/STM32L4xx_HAL_Driver/Src/stm32l4xx_hal.c ****  *
 106:Drivers/STM32L4xx_HAL_Driver/Src/stm32l4xx_hal.c **** @verbatim
 107:Drivers/STM32L4xx_HAL_Driver/Src/stm32l4xx_hal.c ****  ===============================================================================
 108:Drivers/STM32L4xx_HAL_Driver/Src/stm32l4xx_hal.c ****               ##### Initialization and de-initialization functions #####
 109:Drivers/STM32L4xx_HAL_Driver/Src/stm32l4xx_hal.c ****  ===============================================================================
 110:Drivers/STM32L4xx_HAL_Driver/Src/stm32l4xx_hal.c ****     [..]  This section provides functions allowing to:
 111:Drivers/STM32L4xx_HAL_Driver/Src/stm32l4xx_hal.c ****       (+) Initialize the Flash interface, the NVIC allocation and initial time base
 112:Drivers/STM32L4xx_HAL_Driver/Src/stm32l4xx_hal.c ****           clock configuration.
 113:Drivers/STM32L4xx_HAL_Driver/Src/stm32l4xx_hal.c ****       (+) De-initialize common part of the HAL.
 114:Drivers/STM32L4xx_HAL_Driver/Src/stm32l4xx_hal.c ****       (+) Configure the time base source to have 1ms time base with a dedicated
 115:Drivers/STM32L4xx_HAL_Driver/Src/stm32l4xx_hal.c ****           Tick interrupt priority.
 116:Drivers/STM32L4xx_HAL_Driver/Src/stm32l4xx_hal.c ****         (++) SysTick timer is used by default as source of time base, but user
 117:Drivers/STM32L4xx_HAL_Driver/Src/stm32l4xx_hal.c ****              can eventually implement his proper time base source (a general purpose
 118:Drivers/STM32L4xx_HAL_Driver/Src/stm32l4xx_hal.c ****              timer for example or other time source), keeping in mind that Time base
 119:Drivers/STM32L4xx_HAL_Driver/Src/stm32l4xx_hal.c ****              duration should be kept 1ms since PPP_TIMEOUT_VALUEs are defined and
 120:Drivers/STM32L4xx_HAL_Driver/Src/stm32l4xx_hal.c ****              handled in milliseconds basis.
 121:Drivers/STM32L4xx_HAL_Driver/Src/stm32l4xx_hal.c ****         (++) Time base configuration function (HAL_InitTick ()) is called automatically
 122:Drivers/STM32L4xx_HAL_Driver/Src/stm32l4xx_hal.c ****              at the beginning of the program after reset by HAL_Init() or at any time
 123:Drivers/STM32L4xx_HAL_Driver/Src/stm32l4xx_hal.c ****              when clock is configured, by HAL_RCC_ClockConfig().
 124:Drivers/STM32L4xx_HAL_Driver/Src/stm32l4xx_hal.c ****         (++) Source of time base is configured  to generate interrupts at regular
 125:Drivers/STM32L4xx_HAL_Driver/Src/stm32l4xx_hal.c ****              time intervals. Care must be taken if HAL_Delay() is called from a
 126:Drivers/STM32L4xx_HAL_Driver/Src/stm32l4xx_hal.c ****              peripheral ISR process, the Tick interrupt line must have higher priority
 127:Drivers/STM32L4xx_HAL_Driver/Src/stm32l4xx_hal.c ****             (numerically lower) than the peripheral interrupt. Otherwise the caller
 128:Drivers/STM32L4xx_HAL_Driver/Src/stm32l4xx_hal.c ****             ISR process will be blocked.
 129:Drivers/STM32L4xx_HAL_Driver/Src/stm32l4xx_hal.c ****        (++) functions affecting time base configurations are declared as __weak
 130:Drivers/STM32L4xx_HAL_Driver/Src/stm32l4xx_hal.c ****              to make  override possible  in case of other  implementations in user file.
 131:Drivers/STM32L4xx_HAL_Driver/Src/stm32l4xx_hal.c **** @endverbatim
 132:Drivers/STM32L4xx_HAL_Driver/Src/stm32l4xx_hal.c ****   * @{
 133:Drivers/STM32L4xx_HAL_Driver/Src/stm32l4xx_hal.c ****   */
 134:Drivers/STM32L4xx_HAL_Driver/Src/stm32l4xx_hal.c **** 
 135:Drivers/STM32L4xx_HAL_Driver/Src/stm32l4xx_hal.c **** /**
 136:Drivers/STM32L4xx_HAL_Driver/Src/stm32l4xx_hal.c ****   * @brief  Configure the Flash prefetch, the Instruction and Data caches,
 137:Drivers/STM32L4xx_HAL_Driver/Src/stm32l4xx_hal.c ****   *         the time base source, NVIC and any required global low level hardware
 138:Drivers/STM32L4xx_HAL_Driver/Src/stm32l4xx_hal.c ****   *         by calling the HAL_MspInit() callback function to be optionally defined in user file
 139:Drivers/STM32L4xx_HAL_Driver/Src/stm32l4xx_hal.c ****   *         stm32l4xx_hal_msp.c.
 140:Drivers/STM32L4xx_HAL_Driver/Src/stm32l4xx_hal.c ****   *
 141:Drivers/STM32L4xx_HAL_Driver/Src/stm32l4xx_hal.c ****   * @note   HAL_Init() function is called at the beginning of program after reset and before
 142:Drivers/STM32L4xx_HAL_Driver/Src/stm32l4xx_hal.c ****   *         the clock configuration.
 143:Drivers/STM32L4xx_HAL_Driver/Src/stm32l4xx_hal.c ****   *
 144:Drivers/STM32L4xx_HAL_Driver/Src/stm32l4xx_hal.c ****   * @note   In the default implementation the System Timer (Systick) is used as source of time base
ARM GAS  /tmp/ccYK2ZYU.s 			page 4


 145:Drivers/STM32L4xx_HAL_Driver/Src/stm32l4xx_hal.c ****   *         The Systick configuration is based on MSI clock, as MSI is the clock
 146:Drivers/STM32L4xx_HAL_Driver/Src/stm32l4xx_hal.c ****   *         used after a system Reset and the NVIC configuration is set to Priority group 4.
 147:Drivers/STM32L4xx_HAL_Driver/Src/stm32l4xx_hal.c ****   *         Once done, time base tick starts incrementing: the tick variable counter is incremented
 148:Drivers/STM32L4xx_HAL_Driver/Src/stm32l4xx_hal.c ****   *         each 1ms in the SysTick_Handler() interrupt handler.
 149:Drivers/STM32L4xx_HAL_Driver/Src/stm32l4xx_hal.c ****   *
 150:Drivers/STM32L4xx_HAL_Driver/Src/stm32l4xx_hal.c ****   * @retval HAL status
 151:Drivers/STM32L4xx_HAL_Driver/Src/stm32l4xx_hal.c ****   */
 152:Drivers/STM32L4xx_HAL_Driver/Src/stm32l4xx_hal.c **** HAL_StatusTypeDef HAL_Init(void)
 153:Drivers/STM32L4xx_HAL_Driver/Src/stm32l4xx_hal.c **** {
 154:Drivers/STM32L4xx_HAL_Driver/Src/stm32l4xx_hal.c ****   HAL_StatusTypeDef  status = HAL_OK;
 155:Drivers/STM32L4xx_HAL_Driver/Src/stm32l4xx_hal.c **** 
 156:Drivers/STM32L4xx_HAL_Driver/Src/stm32l4xx_hal.c ****   /* Configure Flash prefetch, Instruction cache, Data cache */
 157:Drivers/STM32L4xx_HAL_Driver/Src/stm32l4xx_hal.c ****   /* Default configuration at reset is:                      */
 158:Drivers/STM32L4xx_HAL_Driver/Src/stm32l4xx_hal.c ****   /* - Prefetch disabled                                     */
 159:Drivers/STM32L4xx_HAL_Driver/Src/stm32l4xx_hal.c ****   /* - Instruction cache enabled                             */
 160:Drivers/STM32L4xx_HAL_Driver/Src/stm32l4xx_hal.c ****   /* - Data cache enabled                                    */
 161:Drivers/STM32L4xx_HAL_Driver/Src/stm32l4xx_hal.c **** #if (INSTRUCTION_CACHE_ENABLE == 0)
 162:Drivers/STM32L4xx_HAL_Driver/Src/stm32l4xx_hal.c ****    __HAL_FLASH_INSTRUCTION_CACHE_DISABLE();
 163:Drivers/STM32L4xx_HAL_Driver/Src/stm32l4xx_hal.c **** #endif /* INSTRUCTION_CACHE_ENABLE */
 164:Drivers/STM32L4xx_HAL_Driver/Src/stm32l4xx_hal.c **** 
 165:Drivers/STM32L4xx_HAL_Driver/Src/stm32l4xx_hal.c **** #if (DATA_CACHE_ENABLE == 0)
 166:Drivers/STM32L4xx_HAL_Driver/Src/stm32l4xx_hal.c ****    __HAL_FLASH_DATA_CACHE_DISABLE();
 167:Drivers/STM32L4xx_HAL_Driver/Src/stm32l4xx_hal.c **** #endif /* DATA_CACHE_ENABLE */
 168:Drivers/STM32L4xx_HAL_Driver/Src/stm32l4xx_hal.c **** 
 169:Drivers/STM32L4xx_HAL_Driver/Src/stm32l4xx_hal.c **** #if (PREFETCH_ENABLE != 0)
 170:Drivers/STM32L4xx_HAL_Driver/Src/stm32l4xx_hal.c ****   __HAL_FLASH_PREFETCH_BUFFER_ENABLE();
 171:Drivers/STM32L4xx_HAL_Driver/Src/stm32l4xx_hal.c **** #endif /* PREFETCH_ENABLE */
 172:Drivers/STM32L4xx_HAL_Driver/Src/stm32l4xx_hal.c **** 
 173:Drivers/STM32L4xx_HAL_Driver/Src/stm32l4xx_hal.c ****   /* Set Interrupt Group Priority */
 174:Drivers/STM32L4xx_HAL_Driver/Src/stm32l4xx_hal.c ****   HAL_NVIC_SetPriorityGrouping(NVIC_PRIORITYGROUP_4);
 175:Drivers/STM32L4xx_HAL_Driver/Src/stm32l4xx_hal.c **** 
 176:Drivers/STM32L4xx_HAL_Driver/Src/stm32l4xx_hal.c ****   /* Use SysTick as time base source and configure 1ms tick (default clock after Reset is MSI) */
 177:Drivers/STM32L4xx_HAL_Driver/Src/stm32l4xx_hal.c ****   if (HAL_InitTick(TICK_INT_PRIORITY) != HAL_OK)
 178:Drivers/STM32L4xx_HAL_Driver/Src/stm32l4xx_hal.c ****   {
 179:Drivers/STM32L4xx_HAL_Driver/Src/stm32l4xx_hal.c ****     status = HAL_ERROR;
 180:Drivers/STM32L4xx_HAL_Driver/Src/stm32l4xx_hal.c ****   }
 181:Drivers/STM32L4xx_HAL_Driver/Src/stm32l4xx_hal.c ****   else
 182:Drivers/STM32L4xx_HAL_Driver/Src/stm32l4xx_hal.c ****   {
 183:Drivers/STM32L4xx_HAL_Driver/Src/stm32l4xx_hal.c ****     /* Init the low level hardware */
 184:Drivers/STM32L4xx_HAL_Driver/Src/stm32l4xx_hal.c ****     HAL_MspInit();
 185:Drivers/STM32L4xx_HAL_Driver/Src/stm32l4xx_hal.c ****   }
 186:Drivers/STM32L4xx_HAL_Driver/Src/stm32l4xx_hal.c **** 
 187:Drivers/STM32L4xx_HAL_Driver/Src/stm32l4xx_hal.c ****   /* Return function status */
 188:Drivers/STM32L4xx_HAL_Driver/Src/stm32l4xx_hal.c ****   return status;
 189:Drivers/STM32L4xx_HAL_Driver/Src/stm32l4xx_hal.c **** }
 190:Drivers/STM32L4xx_HAL_Driver/Src/stm32l4xx_hal.c **** 
 191:Drivers/STM32L4xx_HAL_Driver/Src/stm32l4xx_hal.c **** /**
 192:Drivers/STM32L4xx_HAL_Driver/Src/stm32l4xx_hal.c ****   * @brief De-initialize common part of the HAL and stop the source of time base.
 193:Drivers/STM32L4xx_HAL_Driver/Src/stm32l4xx_hal.c ****   * @note This function is optional.
 194:Drivers/STM32L4xx_HAL_Driver/Src/stm32l4xx_hal.c ****   * @retval HAL status
 195:Drivers/STM32L4xx_HAL_Driver/Src/stm32l4xx_hal.c ****   */
 196:Drivers/STM32L4xx_HAL_Driver/Src/stm32l4xx_hal.c **** HAL_StatusTypeDef HAL_DeInit(void)
 197:Drivers/STM32L4xx_HAL_Driver/Src/stm32l4xx_hal.c **** {
 198:Drivers/STM32L4xx_HAL_Driver/Src/stm32l4xx_hal.c ****   /* Reset of all peripherals */
 199:Drivers/STM32L4xx_HAL_Driver/Src/stm32l4xx_hal.c ****   __HAL_RCC_APB1_FORCE_RESET();
 200:Drivers/STM32L4xx_HAL_Driver/Src/stm32l4xx_hal.c ****   __HAL_RCC_APB1_RELEASE_RESET();
 201:Drivers/STM32L4xx_HAL_Driver/Src/stm32l4xx_hal.c **** 
ARM GAS  /tmp/ccYK2ZYU.s 			page 5


 202:Drivers/STM32L4xx_HAL_Driver/Src/stm32l4xx_hal.c ****   __HAL_RCC_APB2_FORCE_RESET();
 203:Drivers/STM32L4xx_HAL_Driver/Src/stm32l4xx_hal.c ****   __HAL_RCC_APB2_RELEASE_RESET();
 204:Drivers/STM32L4xx_HAL_Driver/Src/stm32l4xx_hal.c **** 
 205:Drivers/STM32L4xx_HAL_Driver/Src/stm32l4xx_hal.c ****   __HAL_RCC_AHB1_FORCE_RESET();
 206:Drivers/STM32L4xx_HAL_Driver/Src/stm32l4xx_hal.c ****   __HAL_RCC_AHB1_RELEASE_RESET();
 207:Drivers/STM32L4xx_HAL_Driver/Src/stm32l4xx_hal.c **** 
 208:Drivers/STM32L4xx_HAL_Driver/Src/stm32l4xx_hal.c ****   __HAL_RCC_AHB2_FORCE_RESET();
 209:Drivers/STM32L4xx_HAL_Driver/Src/stm32l4xx_hal.c ****   __HAL_RCC_AHB2_RELEASE_RESET();
 210:Drivers/STM32L4xx_HAL_Driver/Src/stm32l4xx_hal.c **** 
 211:Drivers/STM32L4xx_HAL_Driver/Src/stm32l4xx_hal.c ****   __HAL_RCC_AHB3_FORCE_RESET();
 212:Drivers/STM32L4xx_HAL_Driver/Src/stm32l4xx_hal.c ****   __HAL_RCC_AHB3_RELEASE_RESET();
 213:Drivers/STM32L4xx_HAL_Driver/Src/stm32l4xx_hal.c **** 
 214:Drivers/STM32L4xx_HAL_Driver/Src/stm32l4xx_hal.c ****   /* De-Init the low level hardware */
 215:Drivers/STM32L4xx_HAL_Driver/Src/stm32l4xx_hal.c ****   HAL_MspDeInit();
 216:Drivers/STM32L4xx_HAL_Driver/Src/stm32l4xx_hal.c **** 
 217:Drivers/STM32L4xx_HAL_Driver/Src/stm32l4xx_hal.c ****   /* Return function status */
 218:Drivers/STM32L4xx_HAL_Driver/Src/stm32l4xx_hal.c ****   return HAL_OK;
 219:Drivers/STM32L4xx_HAL_Driver/Src/stm32l4xx_hal.c **** }
 220:Drivers/STM32L4xx_HAL_Driver/Src/stm32l4xx_hal.c **** 
 221:Drivers/STM32L4xx_HAL_Driver/Src/stm32l4xx_hal.c **** /**
 222:Drivers/STM32L4xx_HAL_Driver/Src/stm32l4xx_hal.c ****   * @brief  Initialize the MSP.
 223:Drivers/STM32L4xx_HAL_Driver/Src/stm32l4xx_hal.c ****   * @retval None
 224:Drivers/STM32L4xx_HAL_Driver/Src/stm32l4xx_hal.c ****   */
 225:Drivers/STM32L4xx_HAL_Driver/Src/stm32l4xx_hal.c **** __weak void HAL_MspInit(void)
 226:Drivers/STM32L4xx_HAL_Driver/Src/stm32l4xx_hal.c **** {
  29              		.loc 1 226 1 view -0
  30              		.cfi_startproc
  31              		@ args = 0, pretend = 0, frame = 0
  32              		@ frame_needed = 0, uses_anonymous_args = 0
  33              		@ link register save eliminated.
 227:Drivers/STM32L4xx_HAL_Driver/Src/stm32l4xx_hal.c ****   /* NOTE : This function should not be modified, when the callback is needed,
 228:Drivers/STM32L4xx_HAL_Driver/Src/stm32l4xx_hal.c ****             the HAL_MspInit could be implemented in the user file
 229:Drivers/STM32L4xx_HAL_Driver/Src/stm32l4xx_hal.c ****    */
 230:Drivers/STM32L4xx_HAL_Driver/Src/stm32l4xx_hal.c **** }
  34              		.loc 1 230 1 view .LVU1
  35 0000 7047     		bx	lr
  36              		.cfi_endproc
  37              	.LFE294:
  39              		.section	.text.HAL_MspDeInit,"ax",%progbits
  40              		.align	1
  41              		.weak	HAL_MspDeInit
  42              		.syntax unified
  43              		.thumb
  44              		.thumb_func
  45              		.fpu fpv4-sp-d16
  47              	HAL_MspDeInit:
  48              	.LFB295:
 231:Drivers/STM32L4xx_HAL_Driver/Src/stm32l4xx_hal.c **** 
 232:Drivers/STM32L4xx_HAL_Driver/Src/stm32l4xx_hal.c **** /**
 233:Drivers/STM32L4xx_HAL_Driver/Src/stm32l4xx_hal.c ****   * @brief  DeInitialize the MSP.
 234:Drivers/STM32L4xx_HAL_Driver/Src/stm32l4xx_hal.c ****   * @retval None
 235:Drivers/STM32L4xx_HAL_Driver/Src/stm32l4xx_hal.c ****   */
 236:Drivers/STM32L4xx_HAL_Driver/Src/stm32l4xx_hal.c **** __weak void HAL_MspDeInit(void)
 237:Drivers/STM32L4xx_HAL_Driver/Src/stm32l4xx_hal.c **** {
  49              		.loc 1 237 1 view -0
  50              		.cfi_startproc
  51              		@ args = 0, pretend = 0, frame = 0
ARM GAS  /tmp/ccYK2ZYU.s 			page 6


  52              		@ frame_needed = 0, uses_anonymous_args = 0
  53              		@ link register save eliminated.
 238:Drivers/STM32L4xx_HAL_Driver/Src/stm32l4xx_hal.c ****   /* NOTE : This function should not be modified, when the callback is needed,
 239:Drivers/STM32L4xx_HAL_Driver/Src/stm32l4xx_hal.c ****             the HAL_MspDeInit could be implemented in the user file
 240:Drivers/STM32L4xx_HAL_Driver/Src/stm32l4xx_hal.c ****    */
 241:Drivers/STM32L4xx_HAL_Driver/Src/stm32l4xx_hal.c **** }
  54              		.loc 1 241 1 view .LVU3
  55 0000 7047     		bx	lr
  56              		.cfi_endproc
  57              	.LFE295:
  59              		.section	.text.HAL_DeInit,"ax",%progbits
  60              		.align	1
  61              		.global	HAL_DeInit
  62              		.syntax unified
  63              		.thumb
  64              		.thumb_func
  65              		.fpu fpv4-sp-d16
  67              	HAL_DeInit:
  68              	.LFB293:
 197:Drivers/STM32L4xx_HAL_Driver/Src/stm32l4xx_hal.c ****   /* Reset of all peripherals */
  69              		.loc 1 197 1 view -0
  70              		.cfi_startproc
  71              		@ args = 0, pretend = 0, frame = 0
  72              		@ frame_needed = 0, uses_anonymous_args = 0
  73 0000 10B5     		push	{r4, lr}
  74              	.LCFI0:
  75              		.cfi_def_cfa_offset 8
  76              		.cfi_offset 4, -8
  77              		.cfi_offset 14, -4
 199:Drivers/STM32L4xx_HAL_Driver/Src/stm32l4xx_hal.c ****   __HAL_RCC_APB1_RELEASE_RESET();
  78              		.loc 1 199 3 view .LVU5
 199:Drivers/STM32L4xx_HAL_Driver/Src/stm32l4xx_hal.c ****   __HAL_RCC_APB1_RELEASE_RESET();
  79              		.loc 1 199 3 view .LVU6
  80 0002 0A4B     		ldr	r3, .L5
  81 0004 4FF0FF32 		mov	r2, #-1
  82 0008 9A63     		str	r2, [r3, #56]
 199:Drivers/STM32L4xx_HAL_Driver/Src/stm32l4xx_hal.c ****   __HAL_RCC_APB1_RELEASE_RESET();
  83              		.loc 1 199 3 view .LVU7
  84 000a DA63     		str	r2, [r3, #60]
 199:Drivers/STM32L4xx_HAL_Driver/Src/stm32l4xx_hal.c ****   __HAL_RCC_APB1_RELEASE_RESET();
  85              		.loc 1 199 3 view .LVU8
 200:Drivers/STM32L4xx_HAL_Driver/Src/stm32l4xx_hal.c **** 
  86              		.loc 1 200 3 view .LVU9
 200:Drivers/STM32L4xx_HAL_Driver/Src/stm32l4xx_hal.c **** 
  87              		.loc 1 200 3 view .LVU10
  88 000c 0024     		movs	r4, #0
  89 000e 9C63     		str	r4, [r3, #56]
 200:Drivers/STM32L4xx_HAL_Driver/Src/stm32l4xx_hal.c **** 
  90              		.loc 1 200 3 view .LVU11
  91 0010 DC63     		str	r4, [r3, #60]
 200:Drivers/STM32L4xx_HAL_Driver/Src/stm32l4xx_hal.c **** 
  92              		.loc 1 200 3 view .LVU12
 202:Drivers/STM32L4xx_HAL_Driver/Src/stm32l4xx_hal.c ****   __HAL_RCC_APB2_RELEASE_RESET();
  93              		.loc 1 202 3 view .LVU13
  94 0012 1A64     		str	r2, [r3, #64]
 203:Drivers/STM32L4xx_HAL_Driver/Src/stm32l4xx_hal.c **** 
  95              		.loc 1 203 3 view .LVU14
ARM GAS  /tmp/ccYK2ZYU.s 			page 7


  96 0014 1C64     		str	r4, [r3, #64]
 205:Drivers/STM32L4xx_HAL_Driver/Src/stm32l4xx_hal.c ****   __HAL_RCC_AHB1_RELEASE_RESET();
  97              		.loc 1 205 3 view .LVU15
  98 0016 9A62     		str	r2, [r3, #40]
 206:Drivers/STM32L4xx_HAL_Driver/Src/stm32l4xx_hal.c **** 
  99              		.loc 1 206 3 view .LVU16
 100 0018 9C62     		str	r4, [r3, #40]
 208:Drivers/STM32L4xx_HAL_Driver/Src/stm32l4xx_hal.c ****   __HAL_RCC_AHB2_RELEASE_RESET();
 101              		.loc 1 208 3 view .LVU17
 102 001a DA62     		str	r2, [r3, #44]
 209:Drivers/STM32L4xx_HAL_Driver/Src/stm32l4xx_hal.c **** 
 103              		.loc 1 209 3 view .LVU18
 104 001c DC62     		str	r4, [r3, #44]
 211:Drivers/STM32L4xx_HAL_Driver/Src/stm32l4xx_hal.c ****   __HAL_RCC_AHB3_RELEASE_RESET();
 105              		.loc 1 211 3 view .LVU19
 106 001e 1A63     		str	r2, [r3, #48]
 212:Drivers/STM32L4xx_HAL_Driver/Src/stm32l4xx_hal.c **** 
 107              		.loc 1 212 3 view .LVU20
 108 0020 1C63     		str	r4, [r3, #48]
 215:Drivers/STM32L4xx_HAL_Driver/Src/stm32l4xx_hal.c **** 
 109              		.loc 1 215 3 view .LVU21
 110 0022 FFF7FEFF 		bl	HAL_MspDeInit
 111              	.LVL0:
 218:Drivers/STM32L4xx_HAL_Driver/Src/stm32l4xx_hal.c **** }
 112              		.loc 1 218 3 view .LVU22
 219:Drivers/STM32L4xx_HAL_Driver/Src/stm32l4xx_hal.c **** 
 113              		.loc 1 219 1 is_stmt 0 view .LVU23
 114 0026 2046     		mov	r0, r4
 115 0028 10BD     		pop	{r4, pc}
 116              	.L6:
 117 002a 00BF     		.align	2
 118              	.L5:
 119 002c 00100240 		.word	1073876992
 120              		.cfi_endproc
 121              	.LFE293:
 123              		.section	.text.HAL_InitTick,"ax",%progbits
 124              		.align	1
 125              		.weak	HAL_InitTick
 126              		.syntax unified
 127              		.thumb
 128              		.thumb_func
 129              		.fpu fpv4-sp-d16
 131              	HAL_InitTick:
 132              	.LVL1:
 133              	.LFB296:
 242:Drivers/STM32L4xx_HAL_Driver/Src/stm32l4xx_hal.c **** 
 243:Drivers/STM32L4xx_HAL_Driver/Src/stm32l4xx_hal.c **** /**
 244:Drivers/STM32L4xx_HAL_Driver/Src/stm32l4xx_hal.c ****   * @brief This function configures the source of the time base:
 245:Drivers/STM32L4xx_HAL_Driver/Src/stm32l4xx_hal.c ****   *        The time source is configured to have 1ms time base with a dedicated
 246:Drivers/STM32L4xx_HAL_Driver/Src/stm32l4xx_hal.c ****   *        Tick interrupt priority.
 247:Drivers/STM32L4xx_HAL_Driver/Src/stm32l4xx_hal.c ****   * @note This function is called  automatically at the beginning of program after
 248:Drivers/STM32L4xx_HAL_Driver/Src/stm32l4xx_hal.c ****   *       reset by HAL_Init() or at any time when clock is reconfigured  by HAL_RCC_ClockConfig().
 249:Drivers/STM32L4xx_HAL_Driver/Src/stm32l4xx_hal.c ****   * @note In the default implementation, SysTick timer is the source of time base.
 250:Drivers/STM32L4xx_HAL_Driver/Src/stm32l4xx_hal.c ****   *       It is used to generate interrupts at regular time intervals.
 251:Drivers/STM32L4xx_HAL_Driver/Src/stm32l4xx_hal.c ****   *       Care must be taken if HAL_Delay() is called from a peripheral ISR process,
 252:Drivers/STM32L4xx_HAL_Driver/Src/stm32l4xx_hal.c ****   *       The SysTick interrupt must have higher priority (numerically lower)
 253:Drivers/STM32L4xx_HAL_Driver/Src/stm32l4xx_hal.c ****   *       than the peripheral interrupt. Otherwise the caller ISR process will be blocked.
ARM GAS  /tmp/ccYK2ZYU.s 			page 8


 254:Drivers/STM32L4xx_HAL_Driver/Src/stm32l4xx_hal.c ****   *       The function is declared as __weak  to be overwritten  in case of other
 255:Drivers/STM32L4xx_HAL_Driver/Src/stm32l4xx_hal.c ****   *       implementation  in user file.
 256:Drivers/STM32L4xx_HAL_Driver/Src/stm32l4xx_hal.c ****   * @param TickPriority  Tick interrupt priority.
 257:Drivers/STM32L4xx_HAL_Driver/Src/stm32l4xx_hal.c ****   * @retval HAL status
 258:Drivers/STM32L4xx_HAL_Driver/Src/stm32l4xx_hal.c ****   */
 259:Drivers/STM32L4xx_HAL_Driver/Src/stm32l4xx_hal.c **** __weak HAL_StatusTypeDef HAL_InitTick(uint32_t TickPriority)
 260:Drivers/STM32L4xx_HAL_Driver/Src/stm32l4xx_hal.c **** {
 134              		.loc 1 260 1 is_stmt 1 view -0
 135              		.cfi_startproc
 136              		@ args = 0, pretend = 0, frame = 0
 137              		@ frame_needed = 0, uses_anonymous_args = 0
 261:Drivers/STM32L4xx_HAL_Driver/Src/stm32l4xx_hal.c ****   HAL_StatusTypeDef  status = HAL_OK;
 138              		.loc 1 261 3 view .LVU25
 262:Drivers/STM32L4xx_HAL_Driver/Src/stm32l4xx_hal.c **** 
 263:Drivers/STM32L4xx_HAL_Driver/Src/stm32l4xx_hal.c ****   /* Check uwTickFreq for MisraC 2012 (even if uwTickFreq is a enum type that doesn't take the valu
 264:Drivers/STM32L4xx_HAL_Driver/Src/stm32l4xx_hal.c ****   if ((uint32_t)uwTickFreq != 0U)
 139              		.loc 1 264 3 view .LVU26
 140              		.loc 1 264 28 is_stmt 0 view .LVU27
 141 0000 104B     		ldr	r3, .L18
 142 0002 1B78     		ldrb	r3, [r3]	@ zero_extendqisi2
 143              		.loc 1 264 6 view .LVU28
 144 0004 0BB9     		cbnz	r3, .L16
 265:Drivers/STM32L4xx_HAL_Driver/Src/stm32l4xx_hal.c ****   {
 266:Drivers/STM32L4xx_HAL_Driver/Src/stm32l4xx_hal.c ****     /*Configure the SysTick to have interrupt in 1ms time basis*/
 267:Drivers/STM32L4xx_HAL_Driver/Src/stm32l4xx_hal.c ****     if (HAL_SYSTICK_Config(SystemCoreClock / (1000U / (uint32_t)uwTickFreq)) == 0U)
 268:Drivers/STM32L4xx_HAL_Driver/Src/stm32l4xx_hal.c ****     {
 269:Drivers/STM32L4xx_HAL_Driver/Src/stm32l4xx_hal.c ****       /* Configure the SysTick IRQ priority */
 270:Drivers/STM32L4xx_HAL_Driver/Src/stm32l4xx_hal.c ****       if (TickPriority < (1UL << __NVIC_PRIO_BITS))
 271:Drivers/STM32L4xx_HAL_Driver/Src/stm32l4xx_hal.c ****       {
 272:Drivers/STM32L4xx_HAL_Driver/Src/stm32l4xx_hal.c ****         HAL_NVIC_SetPriority(SysTick_IRQn, TickPriority, 0U);
 273:Drivers/STM32L4xx_HAL_Driver/Src/stm32l4xx_hal.c ****         uwTickPrio = TickPriority;
 274:Drivers/STM32L4xx_HAL_Driver/Src/stm32l4xx_hal.c ****       }
 275:Drivers/STM32L4xx_HAL_Driver/Src/stm32l4xx_hal.c ****       else
 276:Drivers/STM32L4xx_HAL_Driver/Src/stm32l4xx_hal.c ****       {
 277:Drivers/STM32L4xx_HAL_Driver/Src/stm32l4xx_hal.c ****         status = HAL_ERROR;
 278:Drivers/STM32L4xx_HAL_Driver/Src/stm32l4xx_hal.c ****       }
 279:Drivers/STM32L4xx_HAL_Driver/Src/stm32l4xx_hal.c ****     }
 280:Drivers/STM32L4xx_HAL_Driver/Src/stm32l4xx_hal.c ****     else
 281:Drivers/STM32L4xx_HAL_Driver/Src/stm32l4xx_hal.c ****     {
 282:Drivers/STM32L4xx_HAL_Driver/Src/stm32l4xx_hal.c ****       status = HAL_ERROR;
 283:Drivers/STM32L4xx_HAL_Driver/Src/stm32l4xx_hal.c ****     }
 284:Drivers/STM32L4xx_HAL_Driver/Src/stm32l4xx_hal.c ****   }
 285:Drivers/STM32L4xx_HAL_Driver/Src/stm32l4xx_hal.c ****   else
 286:Drivers/STM32L4xx_HAL_Driver/Src/stm32l4xx_hal.c ****   {
 287:Drivers/STM32L4xx_HAL_Driver/Src/stm32l4xx_hal.c ****     status = HAL_ERROR;
 145              		.loc 1 287 12 view .LVU29
 146 0006 0120     		movs	r0, #1
 147              	.LVL2:
 288:Drivers/STM32L4xx_HAL_Driver/Src/stm32l4xx_hal.c ****   }
 289:Drivers/STM32L4xx_HAL_Driver/Src/stm32l4xx_hal.c **** 
 290:Drivers/STM32L4xx_HAL_Driver/Src/stm32l4xx_hal.c ****   /* Return function status */
 291:Drivers/STM32L4xx_HAL_Driver/Src/stm32l4xx_hal.c ****   return status;
 148              		.loc 1 291 3 is_stmt 1 view .LVU30
 292:Drivers/STM32L4xx_HAL_Driver/Src/stm32l4xx_hal.c **** }
 149              		.loc 1 292 1 is_stmt 0 view .LVU31
 150 0008 7047     		bx	lr
 151              	.LVL3:
ARM GAS  /tmp/ccYK2ZYU.s 			page 9


 152              	.L16:
 260:Drivers/STM32L4xx_HAL_Driver/Src/stm32l4xx_hal.c ****   HAL_StatusTypeDef  status = HAL_OK;
 153              		.loc 1 260 1 view .LVU32
 154 000a 10B5     		push	{r4, lr}
 155              	.LCFI1:
 156              		.cfi_def_cfa_offset 8
 157              		.cfi_offset 4, -8
 158              		.cfi_offset 14, -4
 159 000c 0446     		mov	r4, r0
 267:Drivers/STM32L4xx_HAL_Driver/Src/stm32l4xx_hal.c ****     {
 160              		.loc 1 267 5 is_stmt 1 view .LVU33
 267:Drivers/STM32L4xx_HAL_Driver/Src/stm32l4xx_hal.c ****     {
 161              		.loc 1 267 53 is_stmt 0 view .LVU34
 162 000e 4FF47A70 		mov	r0, #1000
 163              	.LVL4:
 267:Drivers/STM32L4xx_HAL_Driver/Src/stm32l4xx_hal.c ****     {
 164              		.loc 1 267 53 view .LVU35
 165 0012 B0FBF3F3 		udiv	r3, r0, r3
 267:Drivers/STM32L4xx_HAL_Driver/Src/stm32l4xx_hal.c ****     {
 166              		.loc 1 267 9 view .LVU36
 167 0016 0C4A     		ldr	r2, .L18+4
 168 0018 1068     		ldr	r0, [r2]
 169 001a B0FBF3F0 		udiv	r0, r0, r3
 170 001e FFF7FEFF 		bl	HAL_SYSTICK_Config
 171              	.LVL5:
 267:Drivers/STM32L4xx_HAL_Driver/Src/stm32l4xx_hal.c ****     {
 172              		.loc 1 267 8 view .LVU37
 173 0022 68B9     		cbnz	r0, .L10
 270:Drivers/STM32L4xx_HAL_Driver/Src/stm32l4xx_hal.c ****       {
 174              		.loc 1 270 7 is_stmt 1 view .LVU38
 270:Drivers/STM32L4xx_HAL_Driver/Src/stm32l4xx_hal.c ****       {
 175              		.loc 1 270 10 is_stmt 0 view .LVU39
 176 0024 0F2C     		cmp	r4, #15
 177 0026 01D9     		bls	.L17
 277:Drivers/STM32L4xx_HAL_Driver/Src/stm32l4xx_hal.c ****       }
 178              		.loc 1 277 16 view .LVU40
 179 0028 0120     		movs	r0, #1
 180 002a 0AE0     		b	.L8
 181              	.L17:
 272:Drivers/STM32L4xx_HAL_Driver/Src/stm32l4xx_hal.c ****         uwTickPrio = TickPriority;
 182              		.loc 1 272 9 is_stmt 1 view .LVU41
 183 002c 0022     		movs	r2, #0
 184 002e 2146     		mov	r1, r4
 185 0030 4FF0FF30 		mov	r0, #-1
 186 0034 FFF7FEFF 		bl	HAL_NVIC_SetPriority
 187              	.LVL6:
 273:Drivers/STM32L4xx_HAL_Driver/Src/stm32l4xx_hal.c ****       }
 188              		.loc 1 273 9 view .LVU42
 273:Drivers/STM32L4xx_HAL_Driver/Src/stm32l4xx_hal.c ****       }
 189              		.loc 1 273 20 is_stmt 0 view .LVU43
 190 0038 044B     		ldr	r3, .L18+8
 191 003a 1C60     		str	r4, [r3]
 261:Drivers/STM32L4xx_HAL_Driver/Src/stm32l4xx_hal.c **** 
 192              		.loc 1 261 22 view .LVU44
 193 003c 0020     		movs	r0, #0
 194 003e 00E0     		b	.L8
 195              	.L10:
ARM GAS  /tmp/ccYK2ZYU.s 			page 10


 282:Drivers/STM32L4xx_HAL_Driver/Src/stm32l4xx_hal.c ****     }
 196              		.loc 1 282 14 view .LVU45
 197 0040 0120     		movs	r0, #1
 198              	.L8:
 199              	.LVL7:
 291:Drivers/STM32L4xx_HAL_Driver/Src/stm32l4xx_hal.c **** }
 200              		.loc 1 291 3 is_stmt 1 view .LVU46
 201              		.loc 1 292 1 is_stmt 0 view .LVU47
 202 0042 10BD     		pop	{r4, pc}
 203              	.LVL8:
 204              	.L19:
 205              		.loc 1 292 1 view .LVU48
 206              		.align	2
 207              	.L18:
 208 0044 00000000 		.word	.LANCHOR0
 209 0048 00000000 		.word	SystemCoreClock
 210 004c 00000000 		.word	.LANCHOR1
 211              		.cfi_endproc
 212              	.LFE296:
 214              		.section	.text.HAL_Init,"ax",%progbits
 215              		.align	1
 216              		.global	HAL_Init
 217              		.syntax unified
 218              		.thumb
 219              		.thumb_func
 220              		.fpu fpv4-sp-d16
 222              	HAL_Init:
 223              	.LFB292:
 153:Drivers/STM32L4xx_HAL_Driver/Src/stm32l4xx_hal.c ****   HAL_StatusTypeDef  status = HAL_OK;
 224              		.loc 1 153 1 is_stmt 1 view -0
 225              		.cfi_startproc
 226              		@ args = 0, pretend = 0, frame = 0
 227              		@ frame_needed = 0, uses_anonymous_args = 0
 228 0000 10B5     		push	{r4, lr}
 229              	.LCFI2:
 230              		.cfi_def_cfa_offset 8
 231              		.cfi_offset 4, -8
 232              		.cfi_offset 14, -4
 154:Drivers/STM32L4xx_HAL_Driver/Src/stm32l4xx_hal.c **** 
 233              		.loc 1 154 3 view .LVU50
 234              	.LVL9:
 174:Drivers/STM32L4xx_HAL_Driver/Src/stm32l4xx_hal.c **** 
 235              		.loc 1 174 3 view .LVU51
 236 0002 0320     		movs	r0, #3
 237 0004 FFF7FEFF 		bl	HAL_NVIC_SetPriorityGrouping
 238              	.LVL10:
 177:Drivers/STM32L4xx_HAL_Driver/Src/stm32l4xx_hal.c ****   {
 239              		.loc 1 177 3 view .LVU52
 177:Drivers/STM32L4xx_HAL_Driver/Src/stm32l4xx_hal.c ****   {
 240              		.loc 1 177 7 is_stmt 0 view .LVU53
 241 0008 0020     		movs	r0, #0
 242 000a FFF7FEFF 		bl	HAL_InitTick
 243              	.LVL11:
 177:Drivers/STM32L4xx_HAL_Driver/Src/stm32l4xx_hal.c ****   {
 244              		.loc 1 177 6 view .LVU54
 245 000e 10B1     		cbz	r0, .L24
 179:Drivers/STM32L4xx_HAL_Driver/Src/stm32l4xx_hal.c ****   }
ARM GAS  /tmp/ccYK2ZYU.s 			page 11


 246              		.loc 1 179 12 view .LVU55
 247 0010 0124     		movs	r4, #1
 248              	.L21:
 249              	.LVL12:
 188:Drivers/STM32L4xx_HAL_Driver/Src/stm32l4xx_hal.c **** }
 250              		.loc 1 188 3 is_stmt 1 view .LVU56
 189:Drivers/STM32L4xx_HAL_Driver/Src/stm32l4xx_hal.c **** 
 251              		.loc 1 189 1 is_stmt 0 view .LVU57
 252 0012 2046     		mov	r0, r4
 253 0014 10BD     		pop	{r4, pc}
 254              	.LVL13:
 255              	.L24:
 189:Drivers/STM32L4xx_HAL_Driver/Src/stm32l4xx_hal.c **** 
 256              		.loc 1 189 1 view .LVU58
 257 0016 0446     		mov	r4, r0
 184:Drivers/STM32L4xx_HAL_Driver/Src/stm32l4xx_hal.c ****   }
 258              		.loc 1 184 5 is_stmt 1 view .LVU59
 259 0018 FFF7FEFF 		bl	HAL_MspInit
 260              	.LVL14:
 261 001c F9E7     		b	.L21
 262              		.cfi_endproc
 263              	.LFE292:
 265              		.section	.text.HAL_IncTick,"ax",%progbits
 266              		.align	1
 267              		.weak	HAL_IncTick
 268              		.syntax unified
 269              		.thumb
 270              		.thumb_func
 271              		.fpu fpv4-sp-d16
 273              	HAL_IncTick:
 274              	.LFB297:
 293:Drivers/STM32L4xx_HAL_Driver/Src/stm32l4xx_hal.c **** 
 294:Drivers/STM32L4xx_HAL_Driver/Src/stm32l4xx_hal.c **** /**
 295:Drivers/STM32L4xx_HAL_Driver/Src/stm32l4xx_hal.c ****   * @}
 296:Drivers/STM32L4xx_HAL_Driver/Src/stm32l4xx_hal.c ****   */
 297:Drivers/STM32L4xx_HAL_Driver/Src/stm32l4xx_hal.c **** 
 298:Drivers/STM32L4xx_HAL_Driver/Src/stm32l4xx_hal.c **** /** @defgroup HAL_Exported_Functions_Group2 HAL Control functions
 299:Drivers/STM32L4xx_HAL_Driver/Src/stm32l4xx_hal.c ****  *  @brief    HAL Control functions
 300:Drivers/STM32L4xx_HAL_Driver/Src/stm32l4xx_hal.c ****  *
 301:Drivers/STM32L4xx_HAL_Driver/Src/stm32l4xx_hal.c **** @verbatim
 302:Drivers/STM32L4xx_HAL_Driver/Src/stm32l4xx_hal.c ****  ===============================================================================
 303:Drivers/STM32L4xx_HAL_Driver/Src/stm32l4xx_hal.c ****                       ##### HAL Control functions #####
 304:Drivers/STM32L4xx_HAL_Driver/Src/stm32l4xx_hal.c ****  ===============================================================================
 305:Drivers/STM32L4xx_HAL_Driver/Src/stm32l4xx_hal.c ****     [..]  This section provides functions allowing to:
 306:Drivers/STM32L4xx_HAL_Driver/Src/stm32l4xx_hal.c ****       (+) Provide a tick value in millisecond
 307:Drivers/STM32L4xx_HAL_Driver/Src/stm32l4xx_hal.c ****       (+) Provide a blocking delay in millisecond
 308:Drivers/STM32L4xx_HAL_Driver/Src/stm32l4xx_hal.c ****       (+) Suspend the time base source interrupt
 309:Drivers/STM32L4xx_HAL_Driver/Src/stm32l4xx_hal.c ****       (+) Resume the time base source interrupt
 310:Drivers/STM32L4xx_HAL_Driver/Src/stm32l4xx_hal.c ****       (+) Get the HAL API driver version
 311:Drivers/STM32L4xx_HAL_Driver/Src/stm32l4xx_hal.c ****       (+) Get the device identifier
 312:Drivers/STM32L4xx_HAL_Driver/Src/stm32l4xx_hal.c ****       (+) Get the device revision identifier
 313:Drivers/STM32L4xx_HAL_Driver/Src/stm32l4xx_hal.c **** 
 314:Drivers/STM32L4xx_HAL_Driver/Src/stm32l4xx_hal.c **** @endverbatim
 315:Drivers/STM32L4xx_HAL_Driver/Src/stm32l4xx_hal.c ****   * @{
 316:Drivers/STM32L4xx_HAL_Driver/Src/stm32l4xx_hal.c ****   */
 317:Drivers/STM32L4xx_HAL_Driver/Src/stm32l4xx_hal.c **** 
 318:Drivers/STM32L4xx_HAL_Driver/Src/stm32l4xx_hal.c **** /**
ARM GAS  /tmp/ccYK2ZYU.s 			page 12


 319:Drivers/STM32L4xx_HAL_Driver/Src/stm32l4xx_hal.c ****   * @brief This function is called to increment a global variable "uwTick"
 320:Drivers/STM32L4xx_HAL_Driver/Src/stm32l4xx_hal.c ****   *        used as application time base.
 321:Drivers/STM32L4xx_HAL_Driver/Src/stm32l4xx_hal.c ****   * @note In the default implementation, this variable is incremented each 1ms
 322:Drivers/STM32L4xx_HAL_Driver/Src/stm32l4xx_hal.c ****   *       in SysTick ISR.
 323:Drivers/STM32L4xx_HAL_Driver/Src/stm32l4xx_hal.c ****  * @note This function is declared as __weak to be overwritten in case of other
 324:Drivers/STM32L4xx_HAL_Driver/Src/stm32l4xx_hal.c ****   *      implementations in user file.
 325:Drivers/STM32L4xx_HAL_Driver/Src/stm32l4xx_hal.c ****   * @retval None
 326:Drivers/STM32L4xx_HAL_Driver/Src/stm32l4xx_hal.c ****   */
 327:Drivers/STM32L4xx_HAL_Driver/Src/stm32l4xx_hal.c **** __weak void HAL_IncTick(void)
 328:Drivers/STM32L4xx_HAL_Driver/Src/stm32l4xx_hal.c **** {
 275              		.loc 1 328 1 view -0
 276              		.cfi_startproc
 277              		@ args = 0, pretend = 0, frame = 0
 278              		@ frame_needed = 0, uses_anonymous_args = 0
 279              		@ link register save eliminated.
 329:Drivers/STM32L4xx_HAL_Driver/Src/stm32l4xx_hal.c ****   uwTick += (uint32_t)uwTickFreq;
 280              		.loc 1 329 3 view .LVU61
 281              		.loc 1 329 13 is_stmt 0 view .LVU62
 282 0000 034B     		ldr	r3, .L26
 283 0002 1B78     		ldrb	r3, [r3]	@ zero_extendqisi2
 284              		.loc 1 329 10 view .LVU63
 285 0004 034A     		ldr	r2, .L26+4
 286 0006 1168     		ldr	r1, [r2]
 287 0008 0B44     		add	r3, r3, r1
 288 000a 1360     		str	r3, [r2]
 330:Drivers/STM32L4xx_HAL_Driver/Src/stm32l4xx_hal.c **** }
 289              		.loc 1 330 1 view .LVU64
 290 000c 7047     		bx	lr
 291              	.L27:
 292 000e 00BF     		.align	2
 293              	.L26:
 294 0010 00000000 		.word	.LANCHOR0
 295 0014 00000000 		.word	uwTick
 296              		.cfi_endproc
 297              	.LFE297:
 299              		.section	.text.HAL_GetTick,"ax",%progbits
 300              		.align	1
 301              		.weak	HAL_GetTick
 302              		.syntax unified
 303              		.thumb
 304              		.thumb_func
 305              		.fpu fpv4-sp-d16
 307              	HAL_GetTick:
 308              	.LFB298:
 331:Drivers/STM32L4xx_HAL_Driver/Src/stm32l4xx_hal.c **** 
 332:Drivers/STM32L4xx_HAL_Driver/Src/stm32l4xx_hal.c **** /**
 333:Drivers/STM32L4xx_HAL_Driver/Src/stm32l4xx_hal.c ****   * @brief Provide a tick value in millisecond.
 334:Drivers/STM32L4xx_HAL_Driver/Src/stm32l4xx_hal.c ****   * @note This function is declared as __weak to be overwritten in case of other
 335:Drivers/STM32L4xx_HAL_Driver/Src/stm32l4xx_hal.c ****   *       implementations in user file.
 336:Drivers/STM32L4xx_HAL_Driver/Src/stm32l4xx_hal.c ****   * @retval tick value
 337:Drivers/STM32L4xx_HAL_Driver/Src/stm32l4xx_hal.c ****   */
 338:Drivers/STM32L4xx_HAL_Driver/Src/stm32l4xx_hal.c **** __weak uint32_t HAL_GetTick(void)
 339:Drivers/STM32L4xx_HAL_Driver/Src/stm32l4xx_hal.c **** {
 309              		.loc 1 339 1 is_stmt 1 view -0
 310              		.cfi_startproc
 311              		@ args = 0, pretend = 0, frame = 0
 312              		@ frame_needed = 0, uses_anonymous_args = 0
ARM GAS  /tmp/ccYK2ZYU.s 			page 13


 313              		@ link register save eliminated.
 340:Drivers/STM32L4xx_HAL_Driver/Src/stm32l4xx_hal.c ****   return uwTick;
 314              		.loc 1 340 3 view .LVU66
 315              		.loc 1 340 10 is_stmt 0 view .LVU67
 316 0000 014B     		ldr	r3, .L29
 317 0002 1868     		ldr	r0, [r3]
 341:Drivers/STM32L4xx_HAL_Driver/Src/stm32l4xx_hal.c **** }
 318              		.loc 1 341 1 view .LVU68
 319 0004 7047     		bx	lr
 320              	.L30:
 321 0006 00BF     		.align	2
 322              	.L29:
 323 0008 00000000 		.word	uwTick
 324              		.cfi_endproc
 325              	.LFE298:
 327              		.section	.text.HAL_GetTickPrio,"ax",%progbits
 328              		.align	1
 329              		.global	HAL_GetTickPrio
 330              		.syntax unified
 331              		.thumb
 332              		.thumb_func
 333              		.fpu fpv4-sp-d16
 335              	HAL_GetTickPrio:
 336              	.LFB299:
 342:Drivers/STM32L4xx_HAL_Driver/Src/stm32l4xx_hal.c **** 
 343:Drivers/STM32L4xx_HAL_Driver/Src/stm32l4xx_hal.c **** /**
 344:Drivers/STM32L4xx_HAL_Driver/Src/stm32l4xx_hal.c ****   * @brief This function returns a tick priority.
 345:Drivers/STM32L4xx_HAL_Driver/Src/stm32l4xx_hal.c ****   * @retval tick priority
 346:Drivers/STM32L4xx_HAL_Driver/Src/stm32l4xx_hal.c ****   */
 347:Drivers/STM32L4xx_HAL_Driver/Src/stm32l4xx_hal.c **** uint32_t HAL_GetTickPrio(void)
 348:Drivers/STM32L4xx_HAL_Driver/Src/stm32l4xx_hal.c **** {
 337              		.loc 1 348 1 is_stmt 1 view -0
 338              		.cfi_startproc
 339              		@ args = 0, pretend = 0, frame = 0
 340              		@ frame_needed = 0, uses_anonymous_args = 0
 341              		@ link register save eliminated.
 349:Drivers/STM32L4xx_HAL_Driver/Src/stm32l4xx_hal.c ****   return uwTickPrio;
 342              		.loc 1 349 3 view .LVU70
 350:Drivers/STM32L4xx_HAL_Driver/Src/stm32l4xx_hal.c **** }
 343              		.loc 1 350 1 is_stmt 0 view .LVU71
 344 0000 014B     		ldr	r3, .L32
 345 0002 1868     		ldr	r0, [r3]
 346 0004 7047     		bx	lr
 347              	.L33:
 348 0006 00BF     		.align	2
 349              	.L32:
 350 0008 00000000 		.word	.LANCHOR1
 351              		.cfi_endproc
 352              	.LFE299:
 354              		.section	.text.HAL_SetTickFreq,"ax",%progbits
 355              		.align	1
 356              		.global	HAL_SetTickFreq
 357              		.syntax unified
 358              		.thumb
 359              		.thumb_func
 360              		.fpu fpv4-sp-d16
 362              	HAL_SetTickFreq:
ARM GAS  /tmp/ccYK2ZYU.s 			page 14


 363              	.LVL15:
 364              	.LFB300:
 351:Drivers/STM32L4xx_HAL_Driver/Src/stm32l4xx_hal.c **** 
 352:Drivers/STM32L4xx_HAL_Driver/Src/stm32l4xx_hal.c **** /**
 353:Drivers/STM32L4xx_HAL_Driver/Src/stm32l4xx_hal.c ****   * @brief Set new tick Freq.
 354:Drivers/STM32L4xx_HAL_Driver/Src/stm32l4xx_hal.c ****   * @param Freq tick frequency
 355:Drivers/STM32L4xx_HAL_Driver/Src/stm32l4xx_hal.c ****   * @retval HAL status
 356:Drivers/STM32L4xx_HAL_Driver/Src/stm32l4xx_hal.c ****   */
 357:Drivers/STM32L4xx_HAL_Driver/Src/stm32l4xx_hal.c **** HAL_StatusTypeDef HAL_SetTickFreq(HAL_TickFreqTypeDef Freq)
 358:Drivers/STM32L4xx_HAL_Driver/Src/stm32l4xx_hal.c **** {
 365              		.loc 1 358 1 is_stmt 1 view -0
 366              		.cfi_startproc
 367              		@ args = 0, pretend = 0, frame = 0
 368              		@ frame_needed = 0, uses_anonymous_args = 0
 369              		.loc 1 358 1 is_stmt 0 view .LVU73
 370 0000 10B5     		push	{r4, lr}
 371              	.LCFI3:
 372              		.cfi_def_cfa_offset 8
 373              		.cfi_offset 4, -8
 374              		.cfi_offset 14, -4
 359:Drivers/STM32L4xx_HAL_Driver/Src/stm32l4xx_hal.c ****   HAL_StatusTypeDef status  = HAL_OK;
 375              		.loc 1 359 3 is_stmt 1 view .LVU74
 376              	.LVL16:
 360:Drivers/STM32L4xx_HAL_Driver/Src/stm32l4xx_hal.c ****   HAL_TickFreqTypeDef prevTickFreq;
 377              		.loc 1 360 3 view .LVU75
 361:Drivers/STM32L4xx_HAL_Driver/Src/stm32l4xx_hal.c **** 
 362:Drivers/STM32L4xx_HAL_Driver/Src/stm32l4xx_hal.c ****   if (uwTickFreq != Freq)
 378              		.loc 1 362 3 view .LVU76
 379              		.loc 1 362 18 is_stmt 0 view .LVU77
 380 0002 084B     		ldr	r3, .L39
 381 0004 1C78     		ldrb	r4, [r3]	@ zero_extendqisi2
 382              		.loc 1 362 6 view .LVU78
 383 0006 8442     		cmp	r4, r0
 384 0008 01D1     		bne	.L38
 359:Drivers/STM32L4xx_HAL_Driver/Src/stm32l4xx_hal.c ****   HAL_TickFreqTypeDef prevTickFreq;
 385              		.loc 1 359 21 view .LVU79
 386 000a 0020     		movs	r0, #0
 387              	.LVL17:
 388              	.L35:
 363:Drivers/STM32L4xx_HAL_Driver/Src/stm32l4xx_hal.c ****   {
 364:Drivers/STM32L4xx_HAL_Driver/Src/stm32l4xx_hal.c ****     /* Back up uwTickFreq frequency */
 365:Drivers/STM32L4xx_HAL_Driver/Src/stm32l4xx_hal.c ****     prevTickFreq = uwTickFreq;
 366:Drivers/STM32L4xx_HAL_Driver/Src/stm32l4xx_hal.c **** 
 367:Drivers/STM32L4xx_HAL_Driver/Src/stm32l4xx_hal.c ****     /* Update uwTickFreq global variable used by HAL_InitTick() */
 368:Drivers/STM32L4xx_HAL_Driver/Src/stm32l4xx_hal.c ****     uwTickFreq = Freq;
 369:Drivers/STM32L4xx_HAL_Driver/Src/stm32l4xx_hal.c **** 
 370:Drivers/STM32L4xx_HAL_Driver/Src/stm32l4xx_hal.c ****     /* Apply the new tick Freq  */
 371:Drivers/STM32L4xx_HAL_Driver/Src/stm32l4xx_hal.c ****     status = HAL_InitTick(uwTickPrio);
 372:Drivers/STM32L4xx_HAL_Driver/Src/stm32l4xx_hal.c ****     if (status != HAL_OK)
 373:Drivers/STM32L4xx_HAL_Driver/Src/stm32l4xx_hal.c ****     {
 374:Drivers/STM32L4xx_HAL_Driver/Src/stm32l4xx_hal.c ****       /* Restore previous tick frequency */
 375:Drivers/STM32L4xx_HAL_Driver/Src/stm32l4xx_hal.c ****       uwTickFreq = prevTickFreq;
 376:Drivers/STM32L4xx_HAL_Driver/Src/stm32l4xx_hal.c ****     }
 377:Drivers/STM32L4xx_HAL_Driver/Src/stm32l4xx_hal.c ****   }
 378:Drivers/STM32L4xx_HAL_Driver/Src/stm32l4xx_hal.c **** 
 379:Drivers/STM32L4xx_HAL_Driver/Src/stm32l4xx_hal.c ****   return status;
 389              		.loc 1 379 3 is_stmt 1 view .LVU80
ARM GAS  /tmp/ccYK2ZYU.s 			page 15


 380:Drivers/STM32L4xx_HAL_Driver/Src/stm32l4xx_hal.c **** }
 390              		.loc 1 380 1 is_stmt 0 view .LVU81
 391 000c 10BD     		pop	{r4, pc}
 392              	.LVL18:
 393              	.L38:
 365:Drivers/STM32L4xx_HAL_Driver/Src/stm32l4xx_hal.c **** 
 394              		.loc 1 365 5 is_stmt 1 view .LVU82
 368:Drivers/STM32L4xx_HAL_Driver/Src/stm32l4xx_hal.c **** 
 395              		.loc 1 368 5 view .LVU83
 368:Drivers/STM32L4xx_HAL_Driver/Src/stm32l4xx_hal.c **** 
 396              		.loc 1 368 16 is_stmt 0 view .LVU84
 397 000e 1870     		strb	r0, [r3]
 371:Drivers/STM32L4xx_HAL_Driver/Src/stm32l4xx_hal.c ****     if (status != HAL_OK)
 398              		.loc 1 371 5 is_stmt 1 view .LVU85
 371:Drivers/STM32L4xx_HAL_Driver/Src/stm32l4xx_hal.c ****     if (status != HAL_OK)
 399              		.loc 1 371 14 is_stmt 0 view .LVU86
 400 0010 054B     		ldr	r3, .L39+4
 401 0012 1868     		ldr	r0, [r3]
 402              	.LVL19:
 371:Drivers/STM32L4xx_HAL_Driver/Src/stm32l4xx_hal.c ****     if (status != HAL_OK)
 403              		.loc 1 371 14 view .LVU87
 404 0014 FFF7FEFF 		bl	HAL_InitTick
 405              	.LVL20:
 372:Drivers/STM32L4xx_HAL_Driver/Src/stm32l4xx_hal.c ****     {
 406              		.loc 1 372 5 is_stmt 1 view .LVU88
 372:Drivers/STM32L4xx_HAL_Driver/Src/stm32l4xx_hal.c ****     {
 407              		.loc 1 372 8 is_stmt 0 view .LVU89
 408 0018 0028     		cmp	r0, #0
 409 001a F7D0     		beq	.L35
 375:Drivers/STM32L4xx_HAL_Driver/Src/stm32l4xx_hal.c ****     }
 410              		.loc 1 375 7 is_stmt 1 view .LVU90
 375:Drivers/STM32L4xx_HAL_Driver/Src/stm32l4xx_hal.c ****     }
 411              		.loc 1 375 18 is_stmt 0 view .LVU91
 412 001c 014B     		ldr	r3, .L39
 413 001e 1C70     		strb	r4, [r3]
 414 0020 F4E7     		b	.L35
 415              	.L40:
 416 0022 00BF     		.align	2
 417              	.L39:
 418 0024 00000000 		.word	.LANCHOR0
 419 0028 00000000 		.word	.LANCHOR1
 420              		.cfi_endproc
 421              	.LFE300:
 423              		.section	.text.HAL_GetTickFreq,"ax",%progbits
 424              		.align	1
 425              		.global	HAL_GetTickFreq
 426              		.syntax unified
 427              		.thumb
 428              		.thumb_func
 429              		.fpu fpv4-sp-d16
 431              	HAL_GetTickFreq:
 432              	.LFB301:
 381:Drivers/STM32L4xx_HAL_Driver/Src/stm32l4xx_hal.c **** 
 382:Drivers/STM32L4xx_HAL_Driver/Src/stm32l4xx_hal.c **** /**
 383:Drivers/STM32L4xx_HAL_Driver/Src/stm32l4xx_hal.c ****   * @brief Return tick frequency.
 384:Drivers/STM32L4xx_HAL_Driver/Src/stm32l4xx_hal.c ****   * @retval tick period in Hz
 385:Drivers/STM32L4xx_HAL_Driver/Src/stm32l4xx_hal.c ****   */
ARM GAS  /tmp/ccYK2ZYU.s 			page 16


 386:Drivers/STM32L4xx_HAL_Driver/Src/stm32l4xx_hal.c **** HAL_TickFreqTypeDef HAL_GetTickFreq(void)
 387:Drivers/STM32L4xx_HAL_Driver/Src/stm32l4xx_hal.c **** {
 433              		.loc 1 387 1 is_stmt 1 view -0
 434              		.cfi_startproc
 435              		@ args = 0, pretend = 0, frame = 0
 436              		@ frame_needed = 0, uses_anonymous_args = 0
 437              		@ link register save eliminated.
 388:Drivers/STM32L4xx_HAL_Driver/Src/stm32l4xx_hal.c ****   return uwTickFreq;
 438              		.loc 1 388 3 view .LVU93
 389:Drivers/STM32L4xx_HAL_Driver/Src/stm32l4xx_hal.c **** }
 439              		.loc 1 389 1 is_stmt 0 view .LVU94
 440 0000 014B     		ldr	r3, .L42
 441 0002 1878     		ldrb	r0, [r3]	@ zero_extendqisi2
 442 0004 7047     		bx	lr
 443              	.L43:
 444 0006 00BF     		.align	2
 445              	.L42:
 446 0008 00000000 		.word	.LANCHOR0
 447              		.cfi_endproc
 448              	.LFE301:
 450              		.section	.text.HAL_Delay,"ax",%progbits
 451              		.align	1
 452              		.weak	HAL_Delay
 453              		.syntax unified
 454              		.thumb
 455              		.thumb_func
 456              		.fpu fpv4-sp-d16
 458              	HAL_Delay:
 459              	.LVL21:
 460              	.LFB302:
 390:Drivers/STM32L4xx_HAL_Driver/Src/stm32l4xx_hal.c **** 
 391:Drivers/STM32L4xx_HAL_Driver/Src/stm32l4xx_hal.c **** /**
 392:Drivers/STM32L4xx_HAL_Driver/Src/stm32l4xx_hal.c ****   * @brief This function provides minimum delay (in milliseconds) based
 393:Drivers/STM32L4xx_HAL_Driver/Src/stm32l4xx_hal.c ****   *        on variable incremented.
 394:Drivers/STM32L4xx_HAL_Driver/Src/stm32l4xx_hal.c ****   * @note In the default implementation , SysTick timer is the source of time base.
 395:Drivers/STM32L4xx_HAL_Driver/Src/stm32l4xx_hal.c ****   *       It is used to generate interrupts at regular time intervals where uwTick
 396:Drivers/STM32L4xx_HAL_Driver/Src/stm32l4xx_hal.c ****   *       is incremented.
 397:Drivers/STM32L4xx_HAL_Driver/Src/stm32l4xx_hal.c ****   * @note This function is declared as __weak to be overwritten in case of other
 398:Drivers/STM32L4xx_HAL_Driver/Src/stm32l4xx_hal.c ****   *       implementations in user file.
 399:Drivers/STM32L4xx_HAL_Driver/Src/stm32l4xx_hal.c ****   * @param Delay  specifies the delay time length, in milliseconds.
 400:Drivers/STM32L4xx_HAL_Driver/Src/stm32l4xx_hal.c ****   * @retval None
 401:Drivers/STM32L4xx_HAL_Driver/Src/stm32l4xx_hal.c ****   */
 402:Drivers/STM32L4xx_HAL_Driver/Src/stm32l4xx_hal.c **** __weak void HAL_Delay(uint32_t Delay)
 403:Drivers/STM32L4xx_HAL_Driver/Src/stm32l4xx_hal.c **** {
 461              		.loc 1 403 1 is_stmt 1 view -0
 462              		.cfi_startproc
 463              		@ args = 0, pretend = 0, frame = 0
 464              		@ frame_needed = 0, uses_anonymous_args = 0
 465              		.loc 1 403 1 is_stmt 0 view .LVU96
 466 0000 38B5     		push	{r3, r4, r5, lr}
 467              	.LCFI4:
 468              		.cfi_def_cfa_offset 16
 469              		.cfi_offset 3, -16
 470              		.cfi_offset 4, -12
 471              		.cfi_offset 5, -8
 472              		.cfi_offset 14, -4
 473 0002 0446     		mov	r4, r0
ARM GAS  /tmp/ccYK2ZYU.s 			page 17


 404:Drivers/STM32L4xx_HAL_Driver/Src/stm32l4xx_hal.c ****   uint32_t tickstart = HAL_GetTick();
 474              		.loc 1 404 3 is_stmt 1 view .LVU97
 475              		.loc 1 404 24 is_stmt 0 view .LVU98
 476 0004 FFF7FEFF 		bl	HAL_GetTick
 477              	.LVL22:
 478              		.loc 1 404 24 view .LVU99
 479 0008 0546     		mov	r5, r0
 480              	.LVL23:
 405:Drivers/STM32L4xx_HAL_Driver/Src/stm32l4xx_hal.c ****   uint32_t wait = Delay;
 481              		.loc 1 405 3 is_stmt 1 view .LVU100
 406:Drivers/STM32L4xx_HAL_Driver/Src/stm32l4xx_hal.c **** 
 407:Drivers/STM32L4xx_HAL_Driver/Src/stm32l4xx_hal.c ****   /* Add a period to guaranty minimum wait */
 408:Drivers/STM32L4xx_HAL_Driver/Src/stm32l4xx_hal.c ****   if (wait < HAL_MAX_DELAY)
 482              		.loc 1 408 3 view .LVU101
 483              		.loc 1 408 6 is_stmt 0 view .LVU102
 484 000a B4F1FF3F 		cmp	r4, #-1
 485 000e 02D0     		beq	.L46
 409:Drivers/STM32L4xx_HAL_Driver/Src/stm32l4xx_hal.c ****   {
 410:Drivers/STM32L4xx_HAL_Driver/Src/stm32l4xx_hal.c ****     wait += (uint32_t)uwTickFreq;
 486              		.loc 1 410 5 is_stmt 1 view .LVU103
 487              		.loc 1 410 13 is_stmt 0 view .LVU104
 488 0010 044B     		ldr	r3, .L48
 489 0012 1B78     		ldrb	r3, [r3]	@ zero_extendqisi2
 490              		.loc 1 410 10 view .LVU105
 491 0014 1C44     		add	r4, r4, r3
 492              	.LVL24:
 493              	.L46:
 411:Drivers/STM32L4xx_HAL_Driver/Src/stm32l4xx_hal.c ****   }
 412:Drivers/STM32L4xx_HAL_Driver/Src/stm32l4xx_hal.c **** 
 413:Drivers/STM32L4xx_HAL_Driver/Src/stm32l4xx_hal.c ****   while ((HAL_GetTick() - tickstart) < wait)
 414:Drivers/STM32L4xx_HAL_Driver/Src/stm32l4xx_hal.c ****   {
 415:Drivers/STM32L4xx_HAL_Driver/Src/stm32l4xx_hal.c ****   }
 494              		.loc 1 415 3 is_stmt 1 discriminator 1 view .LVU106
 413:Drivers/STM32L4xx_HAL_Driver/Src/stm32l4xx_hal.c ****   {
 495              		.loc 1 413 9 discriminator 1 view .LVU107
 413:Drivers/STM32L4xx_HAL_Driver/Src/stm32l4xx_hal.c ****   {
 496              		.loc 1 413 11 is_stmt 0 discriminator 1 view .LVU108
 497 0016 FFF7FEFF 		bl	HAL_GetTick
 498              	.LVL25:
 413:Drivers/STM32L4xx_HAL_Driver/Src/stm32l4xx_hal.c ****   {
 499              		.loc 1 413 25 discriminator 1 view .LVU109
 500 001a 401B     		subs	r0, r0, r5
 413:Drivers/STM32L4xx_HAL_Driver/Src/stm32l4xx_hal.c ****   {
 501              		.loc 1 413 9 discriminator 1 view .LVU110
 502 001c A042     		cmp	r0, r4
 503 001e FAD3     		bcc	.L46
 416:Drivers/STM32L4xx_HAL_Driver/Src/stm32l4xx_hal.c **** }
 504              		.loc 1 416 1 view .LVU111
 505 0020 38BD     		pop	{r3, r4, r5, pc}
 506              	.LVL26:
 507              	.L49:
 508              		.loc 1 416 1 view .LVU112
 509 0022 00BF     		.align	2
 510              	.L48:
 511 0024 00000000 		.word	.LANCHOR0
 512              		.cfi_endproc
 513              	.LFE302:
ARM GAS  /tmp/ccYK2ZYU.s 			page 18


 515              		.section	.text.HAL_SuspendTick,"ax",%progbits
 516              		.align	1
 517              		.weak	HAL_SuspendTick
 518              		.syntax unified
 519              		.thumb
 520              		.thumb_func
 521              		.fpu fpv4-sp-d16
 523              	HAL_SuspendTick:
 524              	.LFB303:
 417:Drivers/STM32L4xx_HAL_Driver/Src/stm32l4xx_hal.c **** 
 418:Drivers/STM32L4xx_HAL_Driver/Src/stm32l4xx_hal.c **** /**
 419:Drivers/STM32L4xx_HAL_Driver/Src/stm32l4xx_hal.c ****   * @brief Suspend Tick increment.
 420:Drivers/STM32L4xx_HAL_Driver/Src/stm32l4xx_hal.c ****   * @note In the default implementation , SysTick timer is the source of time base. It is
 421:Drivers/STM32L4xx_HAL_Driver/Src/stm32l4xx_hal.c ****   *       used to generate interrupts at regular time intervals. Once HAL_SuspendTick()
 422:Drivers/STM32L4xx_HAL_Driver/Src/stm32l4xx_hal.c ****   *       is called, the SysTick interrupt will be disabled and so Tick increment
 423:Drivers/STM32L4xx_HAL_Driver/Src/stm32l4xx_hal.c ****   *       is suspended.
 424:Drivers/STM32L4xx_HAL_Driver/Src/stm32l4xx_hal.c ****   * @note This function is declared as __weak to be overwritten in case of other
 425:Drivers/STM32L4xx_HAL_Driver/Src/stm32l4xx_hal.c ****   *       implementations in user file.
 426:Drivers/STM32L4xx_HAL_Driver/Src/stm32l4xx_hal.c ****   * @retval None
 427:Drivers/STM32L4xx_HAL_Driver/Src/stm32l4xx_hal.c ****   */
 428:Drivers/STM32L4xx_HAL_Driver/Src/stm32l4xx_hal.c **** __weak void HAL_SuspendTick(void)
 429:Drivers/STM32L4xx_HAL_Driver/Src/stm32l4xx_hal.c **** {
 525              		.loc 1 429 1 is_stmt 1 view -0
 526              		.cfi_startproc
 527              		@ args = 0, pretend = 0, frame = 0
 528              		@ frame_needed = 0, uses_anonymous_args = 0
 529              		@ link register save eliminated.
 430:Drivers/STM32L4xx_HAL_Driver/Src/stm32l4xx_hal.c ****   /* Disable SysTick Interrupt */
 431:Drivers/STM32L4xx_HAL_Driver/Src/stm32l4xx_hal.c ****   SysTick->CTRL &= ~SysTick_CTRL_TICKINT_Msk;
 530              		.loc 1 431 3 view .LVU114
 531              		.loc 1 431 17 is_stmt 0 view .LVU115
 532 0000 024A     		ldr	r2, .L51
 533 0002 1368     		ldr	r3, [r2]
 534 0004 23F00203 		bic	r3, r3, #2
 535 0008 1360     		str	r3, [r2]
 432:Drivers/STM32L4xx_HAL_Driver/Src/stm32l4xx_hal.c **** }
 536              		.loc 1 432 1 view .LVU116
 537 000a 7047     		bx	lr
 538              	.L52:
 539              		.align	2
 540              	.L51:
 541 000c 10E000E0 		.word	-536813552
 542              		.cfi_endproc
 543              	.LFE303:
 545              		.section	.text.HAL_ResumeTick,"ax",%progbits
 546              		.align	1
 547              		.weak	HAL_ResumeTick
 548              		.syntax unified
 549              		.thumb
 550              		.thumb_func
 551              		.fpu fpv4-sp-d16
 553              	HAL_ResumeTick:
 554              	.LFB304:
 433:Drivers/STM32L4xx_HAL_Driver/Src/stm32l4xx_hal.c **** 
 434:Drivers/STM32L4xx_HAL_Driver/Src/stm32l4xx_hal.c **** /**
 435:Drivers/STM32L4xx_HAL_Driver/Src/stm32l4xx_hal.c ****   * @brief Resume Tick increment.
 436:Drivers/STM32L4xx_HAL_Driver/Src/stm32l4xx_hal.c ****   * @note In the default implementation , SysTick timer is the source of time base. It is
ARM GAS  /tmp/ccYK2ZYU.s 			page 19


 437:Drivers/STM32L4xx_HAL_Driver/Src/stm32l4xx_hal.c ****   *       used to generate interrupts at regular time intervals. Once HAL_ResumeTick()
 438:Drivers/STM32L4xx_HAL_Driver/Src/stm32l4xx_hal.c ****   *       is called, the SysTick interrupt will be enabled and so Tick increment
 439:Drivers/STM32L4xx_HAL_Driver/Src/stm32l4xx_hal.c ****   *       is resumed.
 440:Drivers/STM32L4xx_HAL_Driver/Src/stm32l4xx_hal.c ****   * @note This function is declared as __weak to be overwritten in case of other
 441:Drivers/STM32L4xx_HAL_Driver/Src/stm32l4xx_hal.c ****   *       implementations in user file.
 442:Drivers/STM32L4xx_HAL_Driver/Src/stm32l4xx_hal.c ****   * @retval None
 443:Drivers/STM32L4xx_HAL_Driver/Src/stm32l4xx_hal.c ****   */
 444:Drivers/STM32L4xx_HAL_Driver/Src/stm32l4xx_hal.c **** __weak void HAL_ResumeTick(void)
 445:Drivers/STM32L4xx_HAL_Driver/Src/stm32l4xx_hal.c **** {
 555              		.loc 1 445 1 is_stmt 1 view -0
 556              		.cfi_startproc
 557              		@ args = 0, pretend = 0, frame = 0
 558              		@ frame_needed = 0, uses_anonymous_args = 0
 559              		@ link register save eliminated.
 446:Drivers/STM32L4xx_HAL_Driver/Src/stm32l4xx_hal.c ****   /* Enable SysTick Interrupt */
 447:Drivers/STM32L4xx_HAL_Driver/Src/stm32l4xx_hal.c ****   SysTick->CTRL  |= SysTick_CTRL_TICKINT_Msk;
 560              		.loc 1 447 3 view .LVU118
 561              		.loc 1 447 18 is_stmt 0 view .LVU119
 562 0000 024A     		ldr	r2, .L54
 563 0002 1368     		ldr	r3, [r2]
 564 0004 43F00203 		orr	r3, r3, #2
 565 0008 1360     		str	r3, [r2]
 448:Drivers/STM32L4xx_HAL_Driver/Src/stm32l4xx_hal.c **** }
 566              		.loc 1 448 1 view .LVU120
 567 000a 7047     		bx	lr
 568              	.L55:
 569              		.align	2
 570              	.L54:
 571 000c 10E000E0 		.word	-536813552
 572              		.cfi_endproc
 573              	.LFE304:
 575              		.section	.text.HAL_GetHalVersion,"ax",%progbits
 576              		.align	1
 577              		.global	HAL_GetHalVersion
 578              		.syntax unified
 579              		.thumb
 580              		.thumb_func
 581              		.fpu fpv4-sp-d16
 583              	HAL_GetHalVersion:
 584              	.LFB305:
 449:Drivers/STM32L4xx_HAL_Driver/Src/stm32l4xx_hal.c **** 
 450:Drivers/STM32L4xx_HAL_Driver/Src/stm32l4xx_hal.c **** /**
 451:Drivers/STM32L4xx_HAL_Driver/Src/stm32l4xx_hal.c ****   * @brief  Return the HAL revision.
 452:Drivers/STM32L4xx_HAL_Driver/Src/stm32l4xx_hal.c ****   * @retval version : 0xXYZR (8bits for each decimal, R for RC)
 453:Drivers/STM32L4xx_HAL_Driver/Src/stm32l4xx_hal.c ****   */
 454:Drivers/STM32L4xx_HAL_Driver/Src/stm32l4xx_hal.c **** uint32_t HAL_GetHalVersion(void)
 455:Drivers/STM32L4xx_HAL_Driver/Src/stm32l4xx_hal.c **** {
 585              		.loc 1 455 1 is_stmt 1 view -0
 586              		.cfi_startproc
 587              		@ args = 0, pretend = 0, frame = 0
 588              		@ frame_needed = 0, uses_anonymous_args = 0
 589              		@ link register save eliminated.
 456:Drivers/STM32L4xx_HAL_Driver/Src/stm32l4xx_hal.c ****   return STM32L4XX_HAL_VERSION;
 590              		.loc 1 456 3 view .LVU122
 457:Drivers/STM32L4xx_HAL_Driver/Src/stm32l4xx_hal.c **** }
 591              		.loc 1 457 1 is_stmt 0 view .LVU123
 592 0000 4FF08670 		mov	r0, #17563648
ARM GAS  /tmp/ccYK2ZYU.s 			page 20


 593 0004 7047     		bx	lr
 594              		.cfi_endproc
 595              	.LFE305:
 597              		.section	.text.HAL_GetREVID,"ax",%progbits
 598              		.align	1
 599              		.global	HAL_GetREVID
 600              		.syntax unified
 601              		.thumb
 602              		.thumb_func
 603              		.fpu fpv4-sp-d16
 605              	HAL_GetREVID:
 606              	.LFB306:
 458:Drivers/STM32L4xx_HAL_Driver/Src/stm32l4xx_hal.c **** 
 459:Drivers/STM32L4xx_HAL_Driver/Src/stm32l4xx_hal.c **** /**
 460:Drivers/STM32L4xx_HAL_Driver/Src/stm32l4xx_hal.c ****   * @brief  Return the device revision identifier.
 461:Drivers/STM32L4xx_HAL_Driver/Src/stm32l4xx_hal.c ****   * @retval Device revision identifier
 462:Drivers/STM32L4xx_HAL_Driver/Src/stm32l4xx_hal.c ****   */
 463:Drivers/STM32L4xx_HAL_Driver/Src/stm32l4xx_hal.c **** uint32_t HAL_GetREVID(void)
 464:Drivers/STM32L4xx_HAL_Driver/Src/stm32l4xx_hal.c **** {
 607              		.loc 1 464 1 is_stmt 1 view -0
 608              		.cfi_startproc
 609              		@ args = 0, pretend = 0, frame = 0
 610              		@ frame_needed = 0, uses_anonymous_args = 0
 611              		@ link register save eliminated.
 465:Drivers/STM32L4xx_HAL_Driver/Src/stm32l4xx_hal.c ****   return((DBGMCU->IDCODE & DBGMCU_IDCODE_REV_ID) >> 16);
 612              		.loc 1 465 3 view .LVU125
 613              		.loc 1 465 17 is_stmt 0 view .LVU126
 614 0000 014B     		ldr	r3, .L58
 615 0002 1868     		ldr	r0, [r3]
 466:Drivers/STM32L4xx_HAL_Driver/Src/stm32l4xx_hal.c **** }
 616              		.loc 1 466 1 view .LVU127
 617 0004 000C     		lsrs	r0, r0, #16
 618 0006 7047     		bx	lr
 619              	.L59:
 620              		.align	2
 621              	.L58:
 622 0008 002004E0 		.word	-536600576
 623              		.cfi_endproc
 624              	.LFE306:
 626              		.section	.text.HAL_GetDEVID,"ax",%progbits
 627              		.align	1
 628              		.global	HAL_GetDEVID
 629              		.syntax unified
 630              		.thumb
 631              		.thumb_func
 632              		.fpu fpv4-sp-d16
 634              	HAL_GetDEVID:
 635              	.LFB307:
 467:Drivers/STM32L4xx_HAL_Driver/Src/stm32l4xx_hal.c **** 
 468:Drivers/STM32L4xx_HAL_Driver/Src/stm32l4xx_hal.c **** /**
 469:Drivers/STM32L4xx_HAL_Driver/Src/stm32l4xx_hal.c ****   * @brief  Return the device identifier.
 470:Drivers/STM32L4xx_HAL_Driver/Src/stm32l4xx_hal.c ****   * @retval Device identifier
 471:Drivers/STM32L4xx_HAL_Driver/Src/stm32l4xx_hal.c ****   */
 472:Drivers/STM32L4xx_HAL_Driver/Src/stm32l4xx_hal.c **** uint32_t HAL_GetDEVID(void)
 473:Drivers/STM32L4xx_HAL_Driver/Src/stm32l4xx_hal.c **** {
 636              		.loc 1 473 1 is_stmt 1 view -0
 637              		.cfi_startproc
ARM GAS  /tmp/ccYK2ZYU.s 			page 21


 638              		@ args = 0, pretend = 0, frame = 0
 639              		@ frame_needed = 0, uses_anonymous_args = 0
 640              		@ link register save eliminated.
 474:Drivers/STM32L4xx_HAL_Driver/Src/stm32l4xx_hal.c ****   return(DBGMCU->IDCODE & DBGMCU_IDCODE_DEV_ID);
 641              		.loc 1 474 3 view .LVU129
 642              		.loc 1 474 16 is_stmt 0 view .LVU130
 643 0000 024B     		ldr	r3, .L61
 644 0002 1868     		ldr	r0, [r3]
 475:Drivers/STM32L4xx_HAL_Driver/Src/stm32l4xx_hal.c **** }
 645              		.loc 1 475 1 view .LVU131
 646 0004 C0F30B00 		ubfx	r0, r0, #0, #12
 647 0008 7047     		bx	lr
 648              	.L62:
 649 000a 00BF     		.align	2
 650              	.L61:
 651 000c 002004E0 		.word	-536600576
 652              		.cfi_endproc
 653              	.LFE307:
 655              		.section	.text.HAL_GetUIDw0,"ax",%progbits
 656              		.align	1
 657              		.global	HAL_GetUIDw0
 658              		.syntax unified
 659              		.thumb
 660              		.thumb_func
 661              		.fpu fpv4-sp-d16
 663              	HAL_GetUIDw0:
 664              	.LFB308:
 476:Drivers/STM32L4xx_HAL_Driver/Src/stm32l4xx_hal.c **** 
 477:Drivers/STM32L4xx_HAL_Driver/Src/stm32l4xx_hal.c **** /**
 478:Drivers/STM32L4xx_HAL_Driver/Src/stm32l4xx_hal.c ****   * @brief  Return the first word of the unique device identifier (UID based on 96 bits)
 479:Drivers/STM32L4xx_HAL_Driver/Src/stm32l4xx_hal.c ****   * @retval Device identifier
 480:Drivers/STM32L4xx_HAL_Driver/Src/stm32l4xx_hal.c ****   */
 481:Drivers/STM32L4xx_HAL_Driver/Src/stm32l4xx_hal.c **** uint32_t HAL_GetUIDw0(void)
 482:Drivers/STM32L4xx_HAL_Driver/Src/stm32l4xx_hal.c **** {
 665              		.loc 1 482 1 is_stmt 1 view -0
 666              		.cfi_startproc
 667              		@ args = 0, pretend = 0, frame = 0
 668              		@ frame_needed = 0, uses_anonymous_args = 0
 669              		@ link register save eliminated.
 483:Drivers/STM32L4xx_HAL_Driver/Src/stm32l4xx_hal.c ****   return(READ_REG(*((uint32_t *)UID_BASE)));
 670              		.loc 1 483 3 view .LVU133
 484:Drivers/STM32L4xx_HAL_Driver/Src/stm32l4xx_hal.c **** }
 671              		.loc 1 484 1 is_stmt 0 view .LVU134
 672 0000 014B     		ldr	r3, .L64
 673 0002 1868     		ldr	r0, [r3]
 674 0004 7047     		bx	lr
 675              	.L65:
 676 0006 00BF     		.align	2
 677              	.L64:
 678 0008 9075FF1F 		.word	536835472
 679              		.cfi_endproc
 680              	.LFE308:
 682              		.section	.text.HAL_GetUIDw1,"ax",%progbits
 683              		.align	1
 684              		.global	HAL_GetUIDw1
 685              		.syntax unified
 686              		.thumb
ARM GAS  /tmp/ccYK2ZYU.s 			page 22


 687              		.thumb_func
 688              		.fpu fpv4-sp-d16
 690              	HAL_GetUIDw1:
 691              	.LFB309:
 485:Drivers/STM32L4xx_HAL_Driver/Src/stm32l4xx_hal.c **** 
 486:Drivers/STM32L4xx_HAL_Driver/Src/stm32l4xx_hal.c **** /**
 487:Drivers/STM32L4xx_HAL_Driver/Src/stm32l4xx_hal.c ****   * @brief  Return the second word of the unique device identifier (UID based on 96 bits)
 488:Drivers/STM32L4xx_HAL_Driver/Src/stm32l4xx_hal.c ****   * @retval Device identifier
 489:Drivers/STM32L4xx_HAL_Driver/Src/stm32l4xx_hal.c ****   */
 490:Drivers/STM32L4xx_HAL_Driver/Src/stm32l4xx_hal.c **** uint32_t HAL_GetUIDw1(void)
 491:Drivers/STM32L4xx_HAL_Driver/Src/stm32l4xx_hal.c **** {
 692              		.loc 1 491 1 is_stmt 1 view -0
 693              		.cfi_startproc
 694              		@ args = 0, pretend = 0, frame = 0
 695              		@ frame_needed = 0, uses_anonymous_args = 0
 696              		@ link register save eliminated.
 492:Drivers/STM32L4xx_HAL_Driver/Src/stm32l4xx_hal.c ****   return(READ_REG(*((uint32_t *)(UID_BASE + 4U))));
 697              		.loc 1 492 3 view .LVU136
 493:Drivers/STM32L4xx_HAL_Driver/Src/stm32l4xx_hal.c **** }
 698              		.loc 1 493 1 is_stmt 0 view .LVU137
 699 0000 014B     		ldr	r3, .L67
 700 0002 1868     		ldr	r0, [r3]
 701 0004 7047     		bx	lr
 702              	.L68:
 703 0006 00BF     		.align	2
 704              	.L67:
 705 0008 9475FF1F 		.word	536835476
 706              		.cfi_endproc
 707              	.LFE309:
 709              		.section	.text.HAL_GetUIDw2,"ax",%progbits
 710              		.align	1
 711              		.global	HAL_GetUIDw2
 712              		.syntax unified
 713              		.thumb
 714              		.thumb_func
 715              		.fpu fpv4-sp-d16
 717              	HAL_GetUIDw2:
 718              	.LFB310:
 494:Drivers/STM32L4xx_HAL_Driver/Src/stm32l4xx_hal.c **** 
 495:Drivers/STM32L4xx_HAL_Driver/Src/stm32l4xx_hal.c **** /**
 496:Drivers/STM32L4xx_HAL_Driver/Src/stm32l4xx_hal.c ****   * @brief  Return the third word of the unique device identifier (UID based on 96 bits)
 497:Drivers/STM32L4xx_HAL_Driver/Src/stm32l4xx_hal.c ****   * @retval Device identifier
 498:Drivers/STM32L4xx_HAL_Driver/Src/stm32l4xx_hal.c ****   */
 499:Drivers/STM32L4xx_HAL_Driver/Src/stm32l4xx_hal.c **** uint32_t HAL_GetUIDw2(void)
 500:Drivers/STM32L4xx_HAL_Driver/Src/stm32l4xx_hal.c **** {
 719              		.loc 1 500 1 is_stmt 1 view -0
 720              		.cfi_startproc
 721              		@ args = 0, pretend = 0, frame = 0
 722              		@ frame_needed = 0, uses_anonymous_args = 0
 723              		@ link register save eliminated.
 501:Drivers/STM32L4xx_HAL_Driver/Src/stm32l4xx_hal.c ****   return(READ_REG(*((uint32_t *)(UID_BASE + 8U))));
 724              		.loc 1 501 3 view .LVU139
 502:Drivers/STM32L4xx_HAL_Driver/Src/stm32l4xx_hal.c **** }
 725              		.loc 1 502 1 is_stmt 0 view .LVU140
 726 0000 014B     		ldr	r3, .L70
 727 0002 1868     		ldr	r0, [r3]
 728 0004 7047     		bx	lr
ARM GAS  /tmp/ccYK2ZYU.s 			page 23


 729              	.L71:
 730 0006 00BF     		.align	2
 731              	.L70:
 732 0008 9875FF1F 		.word	536835480
 733              		.cfi_endproc
 734              	.LFE310:
 736              		.section	.text.HAL_DBGMCU_EnableDBGSleepMode,"ax",%progbits
 737              		.align	1
 738              		.global	HAL_DBGMCU_EnableDBGSleepMode
 739              		.syntax unified
 740              		.thumb
 741              		.thumb_func
 742              		.fpu fpv4-sp-d16
 744              	HAL_DBGMCU_EnableDBGSleepMode:
 745              	.LFB311:
 503:Drivers/STM32L4xx_HAL_Driver/Src/stm32l4xx_hal.c **** 
 504:Drivers/STM32L4xx_HAL_Driver/Src/stm32l4xx_hal.c **** /**
 505:Drivers/STM32L4xx_HAL_Driver/Src/stm32l4xx_hal.c ****   * @}
 506:Drivers/STM32L4xx_HAL_Driver/Src/stm32l4xx_hal.c ****   */
 507:Drivers/STM32L4xx_HAL_Driver/Src/stm32l4xx_hal.c **** 
 508:Drivers/STM32L4xx_HAL_Driver/Src/stm32l4xx_hal.c **** /** @defgroup HAL_Exported_Functions_Group3 HAL Debug functions
 509:Drivers/STM32L4xx_HAL_Driver/Src/stm32l4xx_hal.c ****  *  @brief    HAL Debug functions
 510:Drivers/STM32L4xx_HAL_Driver/Src/stm32l4xx_hal.c ****  *
 511:Drivers/STM32L4xx_HAL_Driver/Src/stm32l4xx_hal.c **** @verbatim
 512:Drivers/STM32L4xx_HAL_Driver/Src/stm32l4xx_hal.c ****  ===============================================================================
 513:Drivers/STM32L4xx_HAL_Driver/Src/stm32l4xx_hal.c ****                       ##### HAL Debug functions #####
 514:Drivers/STM32L4xx_HAL_Driver/Src/stm32l4xx_hal.c ****  ===============================================================================
 515:Drivers/STM32L4xx_HAL_Driver/Src/stm32l4xx_hal.c ****     [..]  This section provides functions allowing to:
 516:Drivers/STM32L4xx_HAL_Driver/Src/stm32l4xx_hal.c ****       (+) Enable/Disable Debug module during SLEEP mode
 517:Drivers/STM32L4xx_HAL_Driver/Src/stm32l4xx_hal.c ****       (+) Enable/Disable Debug module during STOP0/STOP1/STOP2 modes
 518:Drivers/STM32L4xx_HAL_Driver/Src/stm32l4xx_hal.c ****       (+) Enable/Disable Debug module during STANDBY mode
 519:Drivers/STM32L4xx_HAL_Driver/Src/stm32l4xx_hal.c **** 
 520:Drivers/STM32L4xx_HAL_Driver/Src/stm32l4xx_hal.c **** @endverbatim
 521:Drivers/STM32L4xx_HAL_Driver/Src/stm32l4xx_hal.c ****   * @{
 522:Drivers/STM32L4xx_HAL_Driver/Src/stm32l4xx_hal.c ****   */
 523:Drivers/STM32L4xx_HAL_Driver/Src/stm32l4xx_hal.c **** 
 524:Drivers/STM32L4xx_HAL_Driver/Src/stm32l4xx_hal.c **** /**
 525:Drivers/STM32L4xx_HAL_Driver/Src/stm32l4xx_hal.c ****   * @brief  Enable the Debug Module during SLEEP mode.
 526:Drivers/STM32L4xx_HAL_Driver/Src/stm32l4xx_hal.c ****   * @retval None
 527:Drivers/STM32L4xx_HAL_Driver/Src/stm32l4xx_hal.c ****   */
 528:Drivers/STM32L4xx_HAL_Driver/Src/stm32l4xx_hal.c **** void HAL_DBGMCU_EnableDBGSleepMode(void)
 529:Drivers/STM32L4xx_HAL_Driver/Src/stm32l4xx_hal.c **** {
 746              		.loc 1 529 1 is_stmt 1 view -0
 747              		.cfi_startproc
 748              		@ args = 0, pretend = 0, frame = 0
 749              		@ frame_needed = 0, uses_anonymous_args = 0
 750              		@ link register save eliminated.
 530:Drivers/STM32L4xx_HAL_Driver/Src/stm32l4xx_hal.c ****   SET_BIT(DBGMCU->CR, DBGMCU_CR_DBG_SLEEP);
 751              		.loc 1 530 3 view .LVU142
 752 0000 024A     		ldr	r2, .L73
 753 0002 5368     		ldr	r3, [r2, #4]
 754 0004 43F00103 		orr	r3, r3, #1
 755 0008 5360     		str	r3, [r2, #4]
 531:Drivers/STM32L4xx_HAL_Driver/Src/stm32l4xx_hal.c **** }
 756              		.loc 1 531 1 is_stmt 0 view .LVU143
 757 000a 7047     		bx	lr
 758              	.L74:
ARM GAS  /tmp/ccYK2ZYU.s 			page 24


 759              		.align	2
 760              	.L73:
 761 000c 002004E0 		.word	-536600576
 762              		.cfi_endproc
 763              	.LFE311:
 765              		.section	.text.HAL_DBGMCU_DisableDBGSleepMode,"ax",%progbits
 766              		.align	1
 767              		.global	HAL_DBGMCU_DisableDBGSleepMode
 768              		.syntax unified
 769              		.thumb
 770              		.thumb_func
 771              		.fpu fpv4-sp-d16
 773              	HAL_DBGMCU_DisableDBGSleepMode:
 774              	.LFB312:
 532:Drivers/STM32L4xx_HAL_Driver/Src/stm32l4xx_hal.c **** 
 533:Drivers/STM32L4xx_HAL_Driver/Src/stm32l4xx_hal.c **** /**
 534:Drivers/STM32L4xx_HAL_Driver/Src/stm32l4xx_hal.c ****   * @brief  Disable the Debug Module during SLEEP mode.
 535:Drivers/STM32L4xx_HAL_Driver/Src/stm32l4xx_hal.c ****   * @retval None
 536:Drivers/STM32L4xx_HAL_Driver/Src/stm32l4xx_hal.c ****   */
 537:Drivers/STM32L4xx_HAL_Driver/Src/stm32l4xx_hal.c **** void HAL_DBGMCU_DisableDBGSleepMode(void)
 538:Drivers/STM32L4xx_HAL_Driver/Src/stm32l4xx_hal.c **** {
 775              		.loc 1 538 1 is_stmt 1 view -0
 776              		.cfi_startproc
 777              		@ args = 0, pretend = 0, frame = 0
 778              		@ frame_needed = 0, uses_anonymous_args = 0
 779              		@ link register save eliminated.
 539:Drivers/STM32L4xx_HAL_Driver/Src/stm32l4xx_hal.c ****   CLEAR_BIT(DBGMCU->CR, DBGMCU_CR_DBG_SLEEP);
 780              		.loc 1 539 3 view .LVU145
 781 0000 024A     		ldr	r2, .L76
 782 0002 5368     		ldr	r3, [r2, #4]
 783 0004 23F00103 		bic	r3, r3, #1
 784 0008 5360     		str	r3, [r2, #4]
 540:Drivers/STM32L4xx_HAL_Driver/Src/stm32l4xx_hal.c **** }
 785              		.loc 1 540 1 is_stmt 0 view .LVU146
 786 000a 7047     		bx	lr
 787              	.L77:
 788              		.align	2
 789              	.L76:
 790 000c 002004E0 		.word	-536600576
 791              		.cfi_endproc
 792              	.LFE312:
 794              		.section	.text.HAL_DBGMCU_EnableDBGStopMode,"ax",%progbits
 795              		.align	1
 796              		.global	HAL_DBGMCU_EnableDBGStopMode
 797              		.syntax unified
 798              		.thumb
 799              		.thumb_func
 800              		.fpu fpv4-sp-d16
 802              	HAL_DBGMCU_EnableDBGStopMode:
 803              	.LFB313:
 541:Drivers/STM32L4xx_HAL_Driver/Src/stm32l4xx_hal.c **** 
 542:Drivers/STM32L4xx_HAL_Driver/Src/stm32l4xx_hal.c **** /**
 543:Drivers/STM32L4xx_HAL_Driver/Src/stm32l4xx_hal.c ****   * @brief  Enable the Debug Module during STOP0/STOP1/STOP2 modes.
 544:Drivers/STM32L4xx_HAL_Driver/Src/stm32l4xx_hal.c ****   * @retval None
 545:Drivers/STM32L4xx_HAL_Driver/Src/stm32l4xx_hal.c ****   */
 546:Drivers/STM32L4xx_HAL_Driver/Src/stm32l4xx_hal.c **** void HAL_DBGMCU_EnableDBGStopMode(void)
 547:Drivers/STM32L4xx_HAL_Driver/Src/stm32l4xx_hal.c **** {
ARM GAS  /tmp/ccYK2ZYU.s 			page 25


 804              		.loc 1 547 1 is_stmt 1 view -0
 805              		.cfi_startproc
 806              		@ args = 0, pretend = 0, frame = 0
 807              		@ frame_needed = 0, uses_anonymous_args = 0
 808              		@ link register save eliminated.
 548:Drivers/STM32L4xx_HAL_Driver/Src/stm32l4xx_hal.c ****   SET_BIT(DBGMCU->CR, DBGMCU_CR_DBG_STOP);
 809              		.loc 1 548 3 view .LVU148
 810 0000 024A     		ldr	r2, .L79
 811 0002 5368     		ldr	r3, [r2, #4]
 812 0004 43F00203 		orr	r3, r3, #2
 813 0008 5360     		str	r3, [r2, #4]
 549:Drivers/STM32L4xx_HAL_Driver/Src/stm32l4xx_hal.c **** }
 814              		.loc 1 549 1 is_stmt 0 view .LVU149
 815 000a 7047     		bx	lr
 816              	.L80:
 817              		.align	2
 818              	.L79:
 819 000c 002004E0 		.word	-536600576
 820              		.cfi_endproc
 821              	.LFE313:
 823              		.section	.text.HAL_DBGMCU_DisableDBGStopMode,"ax",%progbits
 824              		.align	1
 825              		.global	HAL_DBGMCU_DisableDBGStopMode
 826              		.syntax unified
 827              		.thumb
 828              		.thumb_func
 829              		.fpu fpv4-sp-d16
 831              	HAL_DBGMCU_DisableDBGStopMode:
 832              	.LFB314:
 550:Drivers/STM32L4xx_HAL_Driver/Src/stm32l4xx_hal.c **** 
 551:Drivers/STM32L4xx_HAL_Driver/Src/stm32l4xx_hal.c **** /**
 552:Drivers/STM32L4xx_HAL_Driver/Src/stm32l4xx_hal.c ****   * @brief  Disable the Debug Module during STOP0/STOP1/STOP2 modes.
 553:Drivers/STM32L4xx_HAL_Driver/Src/stm32l4xx_hal.c ****   * @retval None
 554:Drivers/STM32L4xx_HAL_Driver/Src/stm32l4xx_hal.c ****   */
 555:Drivers/STM32L4xx_HAL_Driver/Src/stm32l4xx_hal.c **** void HAL_DBGMCU_DisableDBGStopMode(void)
 556:Drivers/STM32L4xx_HAL_Driver/Src/stm32l4xx_hal.c **** {
 833              		.loc 1 556 1 is_stmt 1 view -0
 834              		.cfi_startproc
 835              		@ args = 0, pretend = 0, frame = 0
 836              		@ frame_needed = 0, uses_anonymous_args = 0
 837              		@ link register save eliminated.
 557:Drivers/STM32L4xx_HAL_Driver/Src/stm32l4xx_hal.c ****   CLEAR_BIT(DBGMCU->CR, DBGMCU_CR_DBG_STOP);
 838              		.loc 1 557 3 view .LVU151
 839 0000 024A     		ldr	r2, .L82
 840 0002 5368     		ldr	r3, [r2, #4]
 841 0004 23F00203 		bic	r3, r3, #2
 842 0008 5360     		str	r3, [r2, #4]
 558:Drivers/STM32L4xx_HAL_Driver/Src/stm32l4xx_hal.c **** }
 843              		.loc 1 558 1 is_stmt 0 view .LVU152
 844 000a 7047     		bx	lr
 845              	.L83:
 846              		.align	2
 847              	.L82:
 848 000c 002004E0 		.word	-536600576
 849              		.cfi_endproc
 850              	.LFE314:
 852              		.section	.text.HAL_DBGMCU_EnableDBGStandbyMode,"ax",%progbits
ARM GAS  /tmp/ccYK2ZYU.s 			page 26


 853              		.align	1
 854              		.global	HAL_DBGMCU_EnableDBGStandbyMode
 855              		.syntax unified
 856              		.thumb
 857              		.thumb_func
 858              		.fpu fpv4-sp-d16
 860              	HAL_DBGMCU_EnableDBGStandbyMode:
 861              	.LFB315:
 559:Drivers/STM32L4xx_HAL_Driver/Src/stm32l4xx_hal.c **** 
 560:Drivers/STM32L4xx_HAL_Driver/Src/stm32l4xx_hal.c **** /**
 561:Drivers/STM32L4xx_HAL_Driver/Src/stm32l4xx_hal.c ****   * @brief  Enable the Debug Module during STANDBY mode.
 562:Drivers/STM32L4xx_HAL_Driver/Src/stm32l4xx_hal.c ****   * @retval None
 563:Drivers/STM32L4xx_HAL_Driver/Src/stm32l4xx_hal.c ****   */
 564:Drivers/STM32L4xx_HAL_Driver/Src/stm32l4xx_hal.c **** void HAL_DBGMCU_EnableDBGStandbyMode(void)
 565:Drivers/STM32L4xx_HAL_Driver/Src/stm32l4xx_hal.c **** {
 862              		.loc 1 565 1 is_stmt 1 view -0
 863              		.cfi_startproc
 864              		@ args = 0, pretend = 0, frame = 0
 865              		@ frame_needed = 0, uses_anonymous_args = 0
 866              		@ link register save eliminated.
 566:Drivers/STM32L4xx_HAL_Driver/Src/stm32l4xx_hal.c ****   SET_BIT(DBGMCU->CR, DBGMCU_CR_DBG_STANDBY);
 867              		.loc 1 566 3 view .LVU154
 868 0000 024A     		ldr	r2, .L85
 869 0002 5368     		ldr	r3, [r2, #4]
 870 0004 43F00403 		orr	r3, r3, #4
 871 0008 5360     		str	r3, [r2, #4]
 567:Drivers/STM32L4xx_HAL_Driver/Src/stm32l4xx_hal.c **** }
 872              		.loc 1 567 1 is_stmt 0 view .LVU155
 873 000a 7047     		bx	lr
 874              	.L86:
 875              		.align	2
 876              	.L85:
 877 000c 002004E0 		.word	-536600576
 878              		.cfi_endproc
 879              	.LFE315:
 881              		.section	.text.HAL_DBGMCU_DisableDBGStandbyMode,"ax",%progbits
 882              		.align	1
 883              		.global	HAL_DBGMCU_DisableDBGStandbyMode
 884              		.syntax unified
 885              		.thumb
 886              		.thumb_func
 887              		.fpu fpv4-sp-d16
 889              	HAL_DBGMCU_DisableDBGStandbyMode:
 890              	.LFB316:
 568:Drivers/STM32L4xx_HAL_Driver/Src/stm32l4xx_hal.c **** 
 569:Drivers/STM32L4xx_HAL_Driver/Src/stm32l4xx_hal.c **** /**
 570:Drivers/STM32L4xx_HAL_Driver/Src/stm32l4xx_hal.c ****   * @brief  Disable the Debug Module during STANDBY mode.
 571:Drivers/STM32L4xx_HAL_Driver/Src/stm32l4xx_hal.c ****   * @retval None
 572:Drivers/STM32L4xx_HAL_Driver/Src/stm32l4xx_hal.c ****   */
 573:Drivers/STM32L4xx_HAL_Driver/Src/stm32l4xx_hal.c **** void HAL_DBGMCU_DisableDBGStandbyMode(void)
 574:Drivers/STM32L4xx_HAL_Driver/Src/stm32l4xx_hal.c **** {
 891              		.loc 1 574 1 is_stmt 1 view -0
 892              		.cfi_startproc
 893              		@ args = 0, pretend = 0, frame = 0
 894              		@ frame_needed = 0, uses_anonymous_args = 0
 895              		@ link register save eliminated.
 575:Drivers/STM32L4xx_HAL_Driver/Src/stm32l4xx_hal.c ****   CLEAR_BIT(DBGMCU->CR, DBGMCU_CR_DBG_STANDBY);
ARM GAS  /tmp/ccYK2ZYU.s 			page 27


 896              		.loc 1 575 3 view .LVU157
 897 0000 024A     		ldr	r2, .L88
 898 0002 5368     		ldr	r3, [r2, #4]
 899 0004 23F00403 		bic	r3, r3, #4
 900 0008 5360     		str	r3, [r2, #4]
 576:Drivers/STM32L4xx_HAL_Driver/Src/stm32l4xx_hal.c **** }
 901              		.loc 1 576 1 is_stmt 0 view .LVU158
 902 000a 7047     		bx	lr
 903              	.L89:
 904              		.align	2
 905              	.L88:
 906 000c 002004E0 		.word	-536600576
 907              		.cfi_endproc
 908              	.LFE316:
 910              		.section	.text.HAL_SYSCFG_SRAM2Erase,"ax",%progbits
 911              		.align	1
 912              		.global	HAL_SYSCFG_SRAM2Erase
 913              		.syntax unified
 914              		.thumb
 915              		.thumb_func
 916              		.fpu fpv4-sp-d16
 918              	HAL_SYSCFG_SRAM2Erase:
 919              	.LFB317:
 577:Drivers/STM32L4xx_HAL_Driver/Src/stm32l4xx_hal.c **** 
 578:Drivers/STM32L4xx_HAL_Driver/Src/stm32l4xx_hal.c **** /**
 579:Drivers/STM32L4xx_HAL_Driver/Src/stm32l4xx_hal.c ****   * @}
 580:Drivers/STM32L4xx_HAL_Driver/Src/stm32l4xx_hal.c ****   */
 581:Drivers/STM32L4xx_HAL_Driver/Src/stm32l4xx_hal.c **** 
 582:Drivers/STM32L4xx_HAL_Driver/Src/stm32l4xx_hal.c **** /** @defgroup HAL_Exported_Functions_Group4 HAL SYSCFG configuration functions
 583:Drivers/STM32L4xx_HAL_Driver/Src/stm32l4xx_hal.c ****  *  @brief    HAL SYSCFG configuration functions
 584:Drivers/STM32L4xx_HAL_Driver/Src/stm32l4xx_hal.c ****  *
 585:Drivers/STM32L4xx_HAL_Driver/Src/stm32l4xx_hal.c **** @verbatim
 586:Drivers/STM32L4xx_HAL_Driver/Src/stm32l4xx_hal.c ****  ===============================================================================
 587:Drivers/STM32L4xx_HAL_Driver/Src/stm32l4xx_hal.c ****                       ##### HAL SYSCFG configuration functions #####
 588:Drivers/STM32L4xx_HAL_Driver/Src/stm32l4xx_hal.c ****  ===============================================================================
 589:Drivers/STM32L4xx_HAL_Driver/Src/stm32l4xx_hal.c ****     [..]  This section provides functions allowing to:
 590:Drivers/STM32L4xx_HAL_Driver/Src/stm32l4xx_hal.c ****       (+) Start a hardware SRAM2 erase operation
 591:Drivers/STM32L4xx_HAL_Driver/Src/stm32l4xx_hal.c ****       (+) Enable/Disable the Internal FLASH Bank Swapping
 592:Drivers/STM32L4xx_HAL_Driver/Src/stm32l4xx_hal.c ****       (+) Configure the Voltage reference buffer
 593:Drivers/STM32L4xx_HAL_Driver/Src/stm32l4xx_hal.c ****       (+) Enable/Disable the Voltage reference buffer
 594:Drivers/STM32L4xx_HAL_Driver/Src/stm32l4xx_hal.c ****       (+) Enable/Disable the I/O analog switch voltage booster
 595:Drivers/STM32L4xx_HAL_Driver/Src/stm32l4xx_hal.c **** 
 596:Drivers/STM32L4xx_HAL_Driver/Src/stm32l4xx_hal.c **** @endverbatim
 597:Drivers/STM32L4xx_HAL_Driver/Src/stm32l4xx_hal.c ****   * @{
 598:Drivers/STM32L4xx_HAL_Driver/Src/stm32l4xx_hal.c ****   */
 599:Drivers/STM32L4xx_HAL_Driver/Src/stm32l4xx_hal.c **** 
 600:Drivers/STM32L4xx_HAL_Driver/Src/stm32l4xx_hal.c **** /**
 601:Drivers/STM32L4xx_HAL_Driver/Src/stm32l4xx_hal.c ****   * @brief  Start a hardware SRAM2 erase operation.
 602:Drivers/STM32L4xx_HAL_Driver/Src/stm32l4xx_hal.c ****   * @note   As long as SRAM2 is not erased the SRAM2ER bit will be set.
 603:Drivers/STM32L4xx_HAL_Driver/Src/stm32l4xx_hal.c ****   *         This bit is automatically reset at the end of the SRAM2 erase operation.
 604:Drivers/STM32L4xx_HAL_Driver/Src/stm32l4xx_hal.c ****   * @retval None
 605:Drivers/STM32L4xx_HAL_Driver/Src/stm32l4xx_hal.c ****   */
 606:Drivers/STM32L4xx_HAL_Driver/Src/stm32l4xx_hal.c **** void HAL_SYSCFG_SRAM2Erase(void)
 607:Drivers/STM32L4xx_HAL_Driver/Src/stm32l4xx_hal.c **** {
 920              		.loc 1 607 1 is_stmt 1 view -0
 921              		.cfi_startproc
 922              		@ args = 0, pretend = 0, frame = 0
ARM GAS  /tmp/ccYK2ZYU.s 			page 28


 923              		@ frame_needed = 0, uses_anonymous_args = 0
 924              		@ link register save eliminated.
 608:Drivers/STM32L4xx_HAL_Driver/Src/stm32l4xx_hal.c ****   /* unlock the write protection of the SRAM2ER bit */
 609:Drivers/STM32L4xx_HAL_Driver/Src/stm32l4xx_hal.c ****   SYSCFG->SKR = 0xCA;
 925              		.loc 1 609 3 view .LVU160
 926              		.loc 1 609 15 is_stmt 0 view .LVU161
 927 0000 054B     		ldr	r3, .L91
 928 0002 CA22     		movs	r2, #202
 929 0004 5A62     		str	r2, [r3, #36]
 610:Drivers/STM32L4xx_HAL_Driver/Src/stm32l4xx_hal.c ****   SYSCFG->SKR = 0x53;
 930              		.loc 1 610 3 is_stmt 1 view .LVU162
 931              		.loc 1 610 15 is_stmt 0 view .LVU163
 932 0006 5322     		movs	r2, #83
 933 0008 5A62     		str	r2, [r3, #36]
 611:Drivers/STM32L4xx_HAL_Driver/Src/stm32l4xx_hal.c ****   /* Starts a hardware SRAM2 erase operation*/
 612:Drivers/STM32L4xx_HAL_Driver/Src/stm32l4xx_hal.c ****   *(__IO uint32_t *) SCSR_SRAM2ER_BB = 0x00000001UL;
 934              		.loc 1 612 3 is_stmt 1 view .LVU164
 935              		.loc 1 612 38 is_stmt 0 view .LVU165
 936 000a A3F1FD23 		sub	r3, r3, #-50266880
 937 000e A3F56003 		sub	r3, r3, #14680064
 938 0012 0122     		movs	r2, #1
 939 0014 1A60     		str	r2, [r3]
 613:Drivers/STM32L4xx_HAL_Driver/Src/stm32l4xx_hal.c **** }
 940              		.loc 1 613 1 view .LVU166
 941 0016 7047     		bx	lr
 942              	.L92:
 943              		.align	2
 944              	.L91:
 945 0018 00000140 		.word	1073807360
 946              		.cfi_endproc
 947              	.LFE317:
 949              		.section	.text.HAL_SYSCFG_EnableMemorySwappingBank,"ax",%progbits
 950              		.align	1
 951              		.global	HAL_SYSCFG_EnableMemorySwappingBank
 952              		.syntax unified
 953              		.thumb
 954              		.thumb_func
 955              		.fpu fpv4-sp-d16
 957              	HAL_SYSCFG_EnableMemorySwappingBank:
 958              	.LFB318:
 614:Drivers/STM32L4xx_HAL_Driver/Src/stm32l4xx_hal.c **** 
 615:Drivers/STM32L4xx_HAL_Driver/Src/stm32l4xx_hal.c **** /**
 616:Drivers/STM32L4xx_HAL_Driver/Src/stm32l4xx_hal.c ****   * @brief  Enable the Internal FLASH Bank Swapping.
 617:Drivers/STM32L4xx_HAL_Driver/Src/stm32l4xx_hal.c ****   *
 618:Drivers/STM32L4xx_HAL_Driver/Src/stm32l4xx_hal.c ****   * @note   This function can be used only for STM32L4xx devices.
 619:Drivers/STM32L4xx_HAL_Driver/Src/stm32l4xx_hal.c ****   *
 620:Drivers/STM32L4xx_HAL_Driver/Src/stm32l4xx_hal.c ****   * @note   Flash Bank2 mapped at 0x08000000 (and aliased @0x00000000)
 621:Drivers/STM32L4xx_HAL_Driver/Src/stm32l4xx_hal.c ****   *         and Flash Bank1 mapped at 0x08100000 (and aliased at 0x00100000)
 622:Drivers/STM32L4xx_HAL_Driver/Src/stm32l4xx_hal.c ****   *
 623:Drivers/STM32L4xx_HAL_Driver/Src/stm32l4xx_hal.c ****   * @retval None
 624:Drivers/STM32L4xx_HAL_Driver/Src/stm32l4xx_hal.c ****   */
 625:Drivers/STM32L4xx_HAL_Driver/Src/stm32l4xx_hal.c **** void HAL_SYSCFG_EnableMemorySwappingBank(void)
 626:Drivers/STM32L4xx_HAL_Driver/Src/stm32l4xx_hal.c **** {
 959              		.loc 1 626 1 is_stmt 1 view -0
 960              		.cfi_startproc
 961              		@ args = 0, pretend = 0, frame = 0
 962              		@ frame_needed = 0, uses_anonymous_args = 0
ARM GAS  /tmp/ccYK2ZYU.s 			page 29


 963              		@ link register save eliminated.
 627:Drivers/STM32L4xx_HAL_Driver/Src/stm32l4xx_hal.c ****   *(__IO uint32_t *)FB_MODE_BB = 0x00000001UL;
 964              		.loc 1 627 3 view .LVU168
 965              		.loc 1 627 32 is_stmt 0 view .LVU169
 966 0000 014B     		ldr	r3, .L94
 967 0002 0122     		movs	r2, #1
 968 0004 1A60     		str	r2, [r3]
 628:Drivers/STM32L4xx_HAL_Driver/Src/stm32l4xx_hal.c **** }
 969              		.loc 1 628 1 view .LVU170
 970 0006 7047     		bx	lr
 971              	.L95:
 972              		.align	2
 973              	.L94:
 974 0008 20002042 		.word	1109393440
 975              		.cfi_endproc
 976              	.LFE318:
 978              		.section	.text.HAL_SYSCFG_DisableMemorySwappingBank,"ax",%progbits
 979              		.align	1
 980              		.global	HAL_SYSCFG_DisableMemorySwappingBank
 981              		.syntax unified
 982              		.thumb
 983              		.thumb_func
 984              		.fpu fpv4-sp-d16
 986              	HAL_SYSCFG_DisableMemorySwappingBank:
 987              	.LFB319:
 629:Drivers/STM32L4xx_HAL_Driver/Src/stm32l4xx_hal.c **** 
 630:Drivers/STM32L4xx_HAL_Driver/Src/stm32l4xx_hal.c **** /**
 631:Drivers/STM32L4xx_HAL_Driver/Src/stm32l4xx_hal.c ****   * @brief  Disable the Internal FLASH Bank Swapping.
 632:Drivers/STM32L4xx_HAL_Driver/Src/stm32l4xx_hal.c ****   *
 633:Drivers/STM32L4xx_HAL_Driver/Src/stm32l4xx_hal.c ****   * @note   This function can be used only for STM32L4xx devices.
 634:Drivers/STM32L4xx_HAL_Driver/Src/stm32l4xx_hal.c ****   *
 635:Drivers/STM32L4xx_HAL_Driver/Src/stm32l4xx_hal.c ****   * @note   The default state : Flash Bank1 mapped at 0x08000000 (and aliased @0x0000 0000)
 636:Drivers/STM32L4xx_HAL_Driver/Src/stm32l4xx_hal.c ****   *         and Flash Bank2 mapped at 0x08100000 (and aliased at 0x00100000)
 637:Drivers/STM32L4xx_HAL_Driver/Src/stm32l4xx_hal.c ****   *
 638:Drivers/STM32L4xx_HAL_Driver/Src/stm32l4xx_hal.c ****   * @retval None
 639:Drivers/STM32L4xx_HAL_Driver/Src/stm32l4xx_hal.c ****   */
 640:Drivers/STM32L4xx_HAL_Driver/Src/stm32l4xx_hal.c **** void HAL_SYSCFG_DisableMemorySwappingBank(void)
 641:Drivers/STM32L4xx_HAL_Driver/Src/stm32l4xx_hal.c **** {
 988              		.loc 1 641 1 is_stmt 1 view -0
 989              		.cfi_startproc
 990              		@ args = 0, pretend = 0, frame = 0
 991              		@ frame_needed = 0, uses_anonymous_args = 0
 992              		@ link register save eliminated.
 642:Drivers/STM32L4xx_HAL_Driver/Src/stm32l4xx_hal.c **** 
 643:Drivers/STM32L4xx_HAL_Driver/Src/stm32l4xx_hal.c ****   *(__IO uint32_t *)FB_MODE_BB = 0x00000000UL;
 993              		.loc 1 643 3 view .LVU172
 994              		.loc 1 643 32 is_stmt 0 view .LVU173
 995 0000 014B     		ldr	r3, .L97
 996 0002 0022     		movs	r2, #0
 997 0004 1A60     		str	r2, [r3]
 644:Drivers/STM32L4xx_HAL_Driver/Src/stm32l4xx_hal.c **** }
 998              		.loc 1 644 1 view .LVU174
 999 0006 7047     		bx	lr
 1000              	.L98:
 1001              		.align	2
 1002              	.L97:
 1003 0008 20002042 		.word	1109393440
ARM GAS  /tmp/ccYK2ZYU.s 			page 30


 1004              		.cfi_endproc
 1005              	.LFE319:
 1007              		.section	.text.HAL_SYSCFG_VREFBUF_VoltageScalingConfig,"ax",%progbits
 1008              		.align	1
 1009              		.global	HAL_SYSCFG_VREFBUF_VoltageScalingConfig
 1010              		.syntax unified
 1011              		.thumb
 1012              		.thumb_func
 1013              		.fpu fpv4-sp-d16
 1015              	HAL_SYSCFG_VREFBUF_VoltageScalingConfig:
 1016              	.LVL27:
 1017              	.LFB320:
 645:Drivers/STM32L4xx_HAL_Driver/Src/stm32l4xx_hal.c **** 
 646:Drivers/STM32L4xx_HAL_Driver/Src/stm32l4xx_hal.c **** #if defined(VREFBUF)
 647:Drivers/STM32L4xx_HAL_Driver/Src/stm32l4xx_hal.c **** /**
 648:Drivers/STM32L4xx_HAL_Driver/Src/stm32l4xx_hal.c ****   * @brief Configure the internal voltage reference buffer voltage scale.
 649:Drivers/STM32L4xx_HAL_Driver/Src/stm32l4xx_hal.c ****   * @param VoltageScaling  specifies the output voltage to achieve
 650:Drivers/STM32L4xx_HAL_Driver/Src/stm32l4xx_hal.c ****   *          This parameter can be one of the following values:
 651:Drivers/STM32L4xx_HAL_Driver/Src/stm32l4xx_hal.c ****   *            @arg SYSCFG_VREFBUF_VOLTAGE_SCALE0: VREF_OUT1 around 2.048 V.
 652:Drivers/STM32L4xx_HAL_Driver/Src/stm32l4xx_hal.c ****   *                                                This requires VDDA equal to or higher than 2.4 V
 653:Drivers/STM32L4xx_HAL_Driver/Src/stm32l4xx_hal.c ****   *            @arg SYSCFG_VREFBUF_VOLTAGE_SCALE1: VREF_OUT2 around 2.5 V.
 654:Drivers/STM32L4xx_HAL_Driver/Src/stm32l4xx_hal.c ****   *                                                This requires VDDA equal to or higher than 2.8 V
 655:Drivers/STM32L4xx_HAL_Driver/Src/stm32l4xx_hal.c ****   * @retval None
 656:Drivers/STM32L4xx_HAL_Driver/Src/stm32l4xx_hal.c ****   */
 657:Drivers/STM32L4xx_HAL_Driver/Src/stm32l4xx_hal.c **** void HAL_SYSCFG_VREFBUF_VoltageScalingConfig(uint32_t VoltageScaling)
 658:Drivers/STM32L4xx_HAL_Driver/Src/stm32l4xx_hal.c **** {
 1018              		.loc 1 658 1 is_stmt 1 view -0
 1019              		.cfi_startproc
 1020              		@ args = 0, pretend = 0, frame = 0
 1021              		@ frame_needed = 0, uses_anonymous_args = 0
 1022              		@ link register save eliminated.
 659:Drivers/STM32L4xx_HAL_Driver/Src/stm32l4xx_hal.c ****   /* Check the parameters */
 660:Drivers/STM32L4xx_HAL_Driver/Src/stm32l4xx_hal.c ****   assert_param(IS_SYSCFG_VREFBUF_VOLTAGE_SCALE(VoltageScaling));
 1023              		.loc 1 660 3 view .LVU176
 661:Drivers/STM32L4xx_HAL_Driver/Src/stm32l4xx_hal.c **** 
 662:Drivers/STM32L4xx_HAL_Driver/Src/stm32l4xx_hal.c ****   MODIFY_REG(VREFBUF->CSR, VREFBUF_CSR_VRS, VoltageScaling);
 1024              		.loc 1 662 3 view .LVU177
 1025 0000 034A     		ldr	r2, .L100
 1026 0002 1368     		ldr	r3, [r2]
 1027 0004 23F00403 		bic	r3, r3, #4
 1028 0008 0343     		orrs	r3, r3, r0
 1029 000a 1360     		str	r3, [r2]
 663:Drivers/STM32L4xx_HAL_Driver/Src/stm32l4xx_hal.c **** }
 1030              		.loc 1 663 1 is_stmt 0 view .LVU178
 1031 000c 7047     		bx	lr
 1032              	.L101:
 1033 000e 00BF     		.align	2
 1034              	.L100:
 1035 0010 30000140 		.word	1073807408
 1036              		.cfi_endproc
 1037              	.LFE320:
 1039              		.section	.text.HAL_SYSCFG_VREFBUF_HighImpedanceConfig,"ax",%progbits
 1040              		.align	1
 1041              		.global	HAL_SYSCFG_VREFBUF_HighImpedanceConfig
 1042              		.syntax unified
 1043              		.thumb
 1044              		.thumb_func
ARM GAS  /tmp/ccYK2ZYU.s 			page 31


 1045              		.fpu fpv4-sp-d16
 1047              	HAL_SYSCFG_VREFBUF_HighImpedanceConfig:
 1048              	.LVL28:
 1049              	.LFB321:
 664:Drivers/STM32L4xx_HAL_Driver/Src/stm32l4xx_hal.c **** 
 665:Drivers/STM32L4xx_HAL_Driver/Src/stm32l4xx_hal.c **** /**
 666:Drivers/STM32L4xx_HAL_Driver/Src/stm32l4xx_hal.c ****   * @brief Configure the internal voltage reference buffer high impedance mode.
 667:Drivers/STM32L4xx_HAL_Driver/Src/stm32l4xx_hal.c ****   * @param Mode  specifies the high impedance mode
 668:Drivers/STM32L4xx_HAL_Driver/Src/stm32l4xx_hal.c ****   *          This parameter can be one of the following values:
 669:Drivers/STM32L4xx_HAL_Driver/Src/stm32l4xx_hal.c ****   *            @arg SYSCFG_VREFBUF_HIGH_IMPEDANCE_DISABLE: VREF+ pin is internally connect to VREFI
 670:Drivers/STM32L4xx_HAL_Driver/Src/stm32l4xx_hal.c ****   *            @arg SYSCFG_VREFBUF_HIGH_IMPEDANCE_ENABLE: VREF+ pin is high impedance.
 671:Drivers/STM32L4xx_HAL_Driver/Src/stm32l4xx_hal.c ****   * @retval None
 672:Drivers/STM32L4xx_HAL_Driver/Src/stm32l4xx_hal.c ****   */
 673:Drivers/STM32L4xx_HAL_Driver/Src/stm32l4xx_hal.c **** void HAL_SYSCFG_VREFBUF_HighImpedanceConfig(uint32_t Mode)
 674:Drivers/STM32L4xx_HAL_Driver/Src/stm32l4xx_hal.c **** {
 1050              		.loc 1 674 1 is_stmt 1 view -0
 1051              		.cfi_startproc
 1052              		@ args = 0, pretend = 0, frame = 0
 1053              		@ frame_needed = 0, uses_anonymous_args = 0
 1054              		@ link register save eliminated.
 675:Drivers/STM32L4xx_HAL_Driver/Src/stm32l4xx_hal.c ****   /* Check the parameters */
 676:Drivers/STM32L4xx_HAL_Driver/Src/stm32l4xx_hal.c ****   assert_param(IS_SYSCFG_VREFBUF_HIGH_IMPEDANCE(Mode));
 1055              		.loc 1 676 3 view .LVU180
 677:Drivers/STM32L4xx_HAL_Driver/Src/stm32l4xx_hal.c **** 
 678:Drivers/STM32L4xx_HAL_Driver/Src/stm32l4xx_hal.c ****   MODIFY_REG(VREFBUF->CSR, VREFBUF_CSR_HIZ, Mode);
 1056              		.loc 1 678 3 view .LVU181
 1057 0000 034A     		ldr	r2, .L103
 1058 0002 1368     		ldr	r3, [r2]
 1059 0004 23F00203 		bic	r3, r3, #2
 1060 0008 0343     		orrs	r3, r3, r0
 1061 000a 1360     		str	r3, [r2]
 679:Drivers/STM32L4xx_HAL_Driver/Src/stm32l4xx_hal.c **** }
 1062              		.loc 1 679 1 is_stmt 0 view .LVU182
 1063 000c 7047     		bx	lr
 1064              	.L104:
 1065 000e 00BF     		.align	2
 1066              	.L103:
 1067 0010 30000140 		.word	1073807408
 1068              		.cfi_endproc
 1069              	.LFE321:
 1071              		.section	.text.HAL_SYSCFG_VREFBUF_TrimmingConfig,"ax",%progbits
 1072              		.align	1
 1073              		.global	HAL_SYSCFG_VREFBUF_TrimmingConfig
 1074              		.syntax unified
 1075              		.thumb
 1076              		.thumb_func
 1077              		.fpu fpv4-sp-d16
 1079              	HAL_SYSCFG_VREFBUF_TrimmingConfig:
 1080              	.LVL29:
 1081              	.LFB322:
 680:Drivers/STM32L4xx_HAL_Driver/Src/stm32l4xx_hal.c **** 
 681:Drivers/STM32L4xx_HAL_Driver/Src/stm32l4xx_hal.c **** /**
 682:Drivers/STM32L4xx_HAL_Driver/Src/stm32l4xx_hal.c ****   * @brief  Tune the Internal Voltage Reference buffer (VREFBUF).
 683:Drivers/STM32L4xx_HAL_Driver/Src/stm32l4xx_hal.c ****   * @retval None
 684:Drivers/STM32L4xx_HAL_Driver/Src/stm32l4xx_hal.c ****   */
 685:Drivers/STM32L4xx_HAL_Driver/Src/stm32l4xx_hal.c **** void HAL_SYSCFG_VREFBUF_TrimmingConfig(uint32_t TrimmingValue)
 686:Drivers/STM32L4xx_HAL_Driver/Src/stm32l4xx_hal.c **** {
ARM GAS  /tmp/ccYK2ZYU.s 			page 32


 1082              		.loc 1 686 1 is_stmt 1 view -0
 1083              		.cfi_startproc
 1084              		@ args = 0, pretend = 0, frame = 0
 1085              		@ frame_needed = 0, uses_anonymous_args = 0
 1086              		@ link register save eliminated.
 687:Drivers/STM32L4xx_HAL_Driver/Src/stm32l4xx_hal.c ****   /* Check the parameters */
 688:Drivers/STM32L4xx_HAL_Driver/Src/stm32l4xx_hal.c ****   assert_param(IS_SYSCFG_VREFBUF_TRIMMING(TrimmingValue));
 1087              		.loc 1 688 3 view .LVU184
 689:Drivers/STM32L4xx_HAL_Driver/Src/stm32l4xx_hal.c **** 
 690:Drivers/STM32L4xx_HAL_Driver/Src/stm32l4xx_hal.c ****   MODIFY_REG(VREFBUF->CCR, VREFBUF_CCR_TRIM, TrimmingValue);
 1088              		.loc 1 690 3 view .LVU185
 1089 0000 034A     		ldr	r2, .L106
 1090 0002 5368     		ldr	r3, [r2, #4]
 1091 0004 23F03F03 		bic	r3, r3, #63
 1092 0008 0343     		orrs	r3, r3, r0
 1093 000a 5360     		str	r3, [r2, #4]
 691:Drivers/STM32L4xx_HAL_Driver/Src/stm32l4xx_hal.c **** }
 1094              		.loc 1 691 1 is_stmt 0 view .LVU186
 1095 000c 7047     		bx	lr
 1096              	.L107:
 1097 000e 00BF     		.align	2
 1098              	.L106:
 1099 0010 30000140 		.word	1073807408
 1100              		.cfi_endproc
 1101              	.LFE322:
 1103              		.section	.text.HAL_SYSCFG_EnableVREFBUF,"ax",%progbits
 1104              		.align	1
 1105              		.global	HAL_SYSCFG_EnableVREFBUF
 1106              		.syntax unified
 1107              		.thumb
 1108              		.thumb_func
 1109              		.fpu fpv4-sp-d16
 1111              	HAL_SYSCFG_EnableVREFBUF:
 1112              	.LFB323:
 692:Drivers/STM32L4xx_HAL_Driver/Src/stm32l4xx_hal.c **** 
 693:Drivers/STM32L4xx_HAL_Driver/Src/stm32l4xx_hal.c **** /**
 694:Drivers/STM32L4xx_HAL_Driver/Src/stm32l4xx_hal.c ****   * @brief  Enable the Internal Voltage Reference buffer (VREFBUF).
 695:Drivers/STM32L4xx_HAL_Driver/Src/stm32l4xx_hal.c ****   * @retval HAL_OK/HAL_TIMEOUT
 696:Drivers/STM32L4xx_HAL_Driver/Src/stm32l4xx_hal.c ****   */
 697:Drivers/STM32L4xx_HAL_Driver/Src/stm32l4xx_hal.c **** HAL_StatusTypeDef HAL_SYSCFG_EnableVREFBUF(void)
 698:Drivers/STM32L4xx_HAL_Driver/Src/stm32l4xx_hal.c **** {
 1113              		.loc 1 698 1 is_stmt 1 view -0
 1114              		.cfi_startproc
 1115              		@ args = 0, pretend = 0, frame = 0
 1116              		@ frame_needed = 0, uses_anonymous_args = 0
 1117 0000 10B5     		push	{r4, lr}
 1118              	.LCFI5:
 1119              		.cfi_def_cfa_offset 8
 1120              		.cfi_offset 4, -8
 1121              		.cfi_offset 14, -4
 699:Drivers/STM32L4xx_HAL_Driver/Src/stm32l4xx_hal.c ****   uint32_t  tickstart;
 1122              		.loc 1 699 3 view .LVU188
 700:Drivers/STM32L4xx_HAL_Driver/Src/stm32l4xx_hal.c **** 
 701:Drivers/STM32L4xx_HAL_Driver/Src/stm32l4xx_hal.c ****   SET_BIT(VREFBUF->CSR, VREFBUF_CSR_ENVR);
 1123              		.loc 1 701 3 view .LVU189
 1124 0002 0B4A     		ldr	r2, .L115
 1125 0004 1368     		ldr	r3, [r2]
ARM GAS  /tmp/ccYK2ZYU.s 			page 33


 1126 0006 43F00103 		orr	r3, r3, #1
 1127 000a 1360     		str	r3, [r2]
 702:Drivers/STM32L4xx_HAL_Driver/Src/stm32l4xx_hal.c **** 
 703:Drivers/STM32L4xx_HAL_Driver/Src/stm32l4xx_hal.c ****   /* Get Start Tick*/
 704:Drivers/STM32L4xx_HAL_Driver/Src/stm32l4xx_hal.c ****   tickstart = HAL_GetTick();
 1128              		.loc 1 704 3 view .LVU190
 1129              		.loc 1 704 15 is_stmt 0 view .LVU191
 1130 000c FFF7FEFF 		bl	HAL_GetTick
 1131              	.LVL30:
 1132 0010 0446     		mov	r4, r0
 1133              	.LVL31:
 705:Drivers/STM32L4xx_HAL_Driver/Src/stm32l4xx_hal.c **** 
 706:Drivers/STM32L4xx_HAL_Driver/Src/stm32l4xx_hal.c ****   /* Wait for VRR bit  */
 707:Drivers/STM32L4xx_HAL_Driver/Src/stm32l4xx_hal.c ****   while(READ_BIT(VREFBUF->CSR, VREFBUF_CSR_VRR) == 0U)
 1134              		.loc 1 707 3 is_stmt 1 view .LVU192
 1135              	.L109:
 1136              		.loc 1 707 8 view .LVU193
 1137              		.loc 1 707 9 is_stmt 0 view .LVU194
 1138 0012 074B     		ldr	r3, .L115
 1139 0014 1B68     		ldr	r3, [r3]
 1140              		.loc 1 707 8 view .LVU195
 1141 0016 13F0080F 		tst	r3, #8
 1142 001a 06D1     		bne	.L114
 708:Drivers/STM32L4xx_HAL_Driver/Src/stm32l4xx_hal.c ****   {
 709:Drivers/STM32L4xx_HAL_Driver/Src/stm32l4xx_hal.c ****     if((HAL_GetTick() - tickstart) > VREFBUF_TIMEOUT_VALUE)
 1143              		.loc 1 709 5 is_stmt 1 view .LVU196
 1144              		.loc 1 709 9 is_stmt 0 view .LVU197
 1145 001c FFF7FEFF 		bl	HAL_GetTick
 1146              	.LVL32:
 1147              		.loc 1 709 23 view .LVU198
 1148 0020 001B     		subs	r0, r0, r4
 1149              		.loc 1 709 7 view .LVU199
 1150 0022 0A28     		cmp	r0, #10
 1151 0024 F5D9     		bls	.L109
 710:Drivers/STM32L4xx_HAL_Driver/Src/stm32l4xx_hal.c ****     {
 711:Drivers/STM32L4xx_HAL_Driver/Src/stm32l4xx_hal.c ****       return HAL_TIMEOUT;
 1152              		.loc 1 711 14 view .LVU200
 1153 0026 0320     		movs	r0, #3
 1154 0028 00E0     		b	.L110
 1155              	.L114:
 712:Drivers/STM32L4xx_HAL_Driver/Src/stm32l4xx_hal.c ****     }
 713:Drivers/STM32L4xx_HAL_Driver/Src/stm32l4xx_hal.c ****   }
 714:Drivers/STM32L4xx_HAL_Driver/Src/stm32l4xx_hal.c **** 
 715:Drivers/STM32L4xx_HAL_Driver/Src/stm32l4xx_hal.c ****   return HAL_OK;
 1156              		.loc 1 715 10 view .LVU201
 1157 002a 0020     		movs	r0, #0
 1158              	.L110:
 716:Drivers/STM32L4xx_HAL_Driver/Src/stm32l4xx_hal.c **** }
 1159              		.loc 1 716 1 view .LVU202
 1160 002c 10BD     		pop	{r4, pc}
 1161              	.LVL33:
 1162              	.L116:
 1163              		.loc 1 716 1 view .LVU203
 1164 002e 00BF     		.align	2
 1165              	.L115:
 1166 0030 30000140 		.word	1073807408
 1167              		.cfi_endproc
ARM GAS  /tmp/ccYK2ZYU.s 			page 34


 1168              	.LFE323:
 1170              		.section	.text.HAL_SYSCFG_DisableVREFBUF,"ax",%progbits
 1171              		.align	1
 1172              		.global	HAL_SYSCFG_DisableVREFBUF
 1173              		.syntax unified
 1174              		.thumb
 1175              		.thumb_func
 1176              		.fpu fpv4-sp-d16
 1178              	HAL_SYSCFG_DisableVREFBUF:
 1179              	.LFB324:
 717:Drivers/STM32L4xx_HAL_Driver/Src/stm32l4xx_hal.c **** 
 718:Drivers/STM32L4xx_HAL_Driver/Src/stm32l4xx_hal.c **** /**
 719:Drivers/STM32L4xx_HAL_Driver/Src/stm32l4xx_hal.c ****   * @brief  Disable the Internal Voltage Reference buffer (VREFBUF).
 720:Drivers/STM32L4xx_HAL_Driver/Src/stm32l4xx_hal.c ****   *
 721:Drivers/STM32L4xx_HAL_Driver/Src/stm32l4xx_hal.c ****   * @retval None
 722:Drivers/STM32L4xx_HAL_Driver/Src/stm32l4xx_hal.c ****   */
 723:Drivers/STM32L4xx_HAL_Driver/Src/stm32l4xx_hal.c **** void HAL_SYSCFG_DisableVREFBUF(void)
 724:Drivers/STM32L4xx_HAL_Driver/Src/stm32l4xx_hal.c **** {
 1180              		.loc 1 724 1 is_stmt 1 view -0
 1181              		.cfi_startproc
 1182              		@ args = 0, pretend = 0, frame = 0
 1183              		@ frame_needed = 0, uses_anonymous_args = 0
 1184              		@ link register save eliminated.
 725:Drivers/STM32L4xx_HAL_Driver/Src/stm32l4xx_hal.c ****   CLEAR_BIT(VREFBUF->CSR, VREFBUF_CSR_ENVR);
 1185              		.loc 1 725 3 view .LVU205
 1186 0000 024A     		ldr	r2, .L118
 1187 0002 1368     		ldr	r3, [r2]
 1188 0004 23F00103 		bic	r3, r3, #1
 1189 0008 1360     		str	r3, [r2]
 726:Drivers/STM32L4xx_HAL_Driver/Src/stm32l4xx_hal.c **** }
 1190              		.loc 1 726 1 is_stmt 0 view .LVU206
 1191 000a 7047     		bx	lr
 1192              	.L119:
 1193              		.align	2
 1194              	.L118:
 1195 000c 30000140 		.word	1073807408
 1196              		.cfi_endproc
 1197              	.LFE324:
 1199              		.section	.text.HAL_SYSCFG_EnableIOAnalogSwitchBooster,"ax",%progbits
 1200              		.align	1
 1201              		.global	HAL_SYSCFG_EnableIOAnalogSwitchBooster
 1202              		.syntax unified
 1203              		.thumb
 1204              		.thumb_func
 1205              		.fpu fpv4-sp-d16
 1207              	HAL_SYSCFG_EnableIOAnalogSwitchBooster:
 1208              	.LFB325:
 727:Drivers/STM32L4xx_HAL_Driver/Src/stm32l4xx_hal.c **** #endif /* VREFBUF */
 728:Drivers/STM32L4xx_HAL_Driver/Src/stm32l4xx_hal.c **** 
 729:Drivers/STM32L4xx_HAL_Driver/Src/stm32l4xx_hal.c **** /**
 730:Drivers/STM32L4xx_HAL_Driver/Src/stm32l4xx_hal.c ****   * @brief  Enable the I/O analog switch voltage booster
 731:Drivers/STM32L4xx_HAL_Driver/Src/stm32l4xx_hal.c ****   *
 732:Drivers/STM32L4xx_HAL_Driver/Src/stm32l4xx_hal.c ****   * @retval None
 733:Drivers/STM32L4xx_HAL_Driver/Src/stm32l4xx_hal.c ****   */
 734:Drivers/STM32L4xx_HAL_Driver/Src/stm32l4xx_hal.c **** void HAL_SYSCFG_EnableIOAnalogSwitchBooster(void)
 735:Drivers/STM32L4xx_HAL_Driver/Src/stm32l4xx_hal.c **** {
 1209              		.loc 1 735 1 is_stmt 1 view -0
ARM GAS  /tmp/ccYK2ZYU.s 			page 35


 1210              		.cfi_startproc
 1211              		@ args = 0, pretend = 0, frame = 0
 1212              		@ frame_needed = 0, uses_anonymous_args = 0
 1213              		@ link register save eliminated.
 736:Drivers/STM32L4xx_HAL_Driver/Src/stm32l4xx_hal.c ****   SET_BIT(SYSCFG->CFGR1, SYSCFG_CFGR1_BOOSTEN);
 1214              		.loc 1 736 3 view .LVU208
 1215 0000 024A     		ldr	r2, .L121
 1216 0002 5368     		ldr	r3, [r2, #4]
 1217 0004 43F48073 		orr	r3, r3, #256
 1218 0008 5360     		str	r3, [r2, #4]
 737:Drivers/STM32L4xx_HAL_Driver/Src/stm32l4xx_hal.c **** }
 1219              		.loc 1 737 1 is_stmt 0 view .LVU209
 1220 000a 7047     		bx	lr
 1221              	.L122:
 1222              		.align	2
 1223              	.L121:
 1224 000c 00000140 		.word	1073807360
 1225              		.cfi_endproc
 1226              	.LFE325:
 1228              		.section	.text.HAL_SYSCFG_DisableIOAnalogSwitchBooster,"ax",%progbits
 1229              		.align	1
 1230              		.global	HAL_SYSCFG_DisableIOAnalogSwitchBooster
 1231              		.syntax unified
 1232              		.thumb
 1233              		.thumb_func
 1234              		.fpu fpv4-sp-d16
 1236              	HAL_SYSCFG_DisableIOAnalogSwitchBooster:
 1237              	.LFB326:
 738:Drivers/STM32L4xx_HAL_Driver/Src/stm32l4xx_hal.c **** 
 739:Drivers/STM32L4xx_HAL_Driver/Src/stm32l4xx_hal.c **** /**
 740:Drivers/STM32L4xx_HAL_Driver/Src/stm32l4xx_hal.c ****   * @brief  Disable the I/O analog switch voltage booster
 741:Drivers/STM32L4xx_HAL_Driver/Src/stm32l4xx_hal.c ****   *
 742:Drivers/STM32L4xx_HAL_Driver/Src/stm32l4xx_hal.c ****   * @retval None
 743:Drivers/STM32L4xx_HAL_Driver/Src/stm32l4xx_hal.c ****   */
 744:Drivers/STM32L4xx_HAL_Driver/Src/stm32l4xx_hal.c **** void HAL_SYSCFG_DisableIOAnalogSwitchBooster(void)
 745:Drivers/STM32L4xx_HAL_Driver/Src/stm32l4xx_hal.c **** {
 1238              		.loc 1 745 1 is_stmt 1 view -0
 1239              		.cfi_startproc
 1240              		@ args = 0, pretend = 0, frame = 0
 1241              		@ frame_needed = 0, uses_anonymous_args = 0
 1242              		@ link register save eliminated.
 746:Drivers/STM32L4xx_HAL_Driver/Src/stm32l4xx_hal.c ****   CLEAR_BIT(SYSCFG->CFGR1, SYSCFG_CFGR1_BOOSTEN);
 1243              		.loc 1 746 3 view .LVU211
 1244 0000 024A     		ldr	r2, .L124
 1245 0002 5368     		ldr	r3, [r2, #4]
 1246 0004 23F48073 		bic	r3, r3, #256
 1247 0008 5360     		str	r3, [r2, #4]
 747:Drivers/STM32L4xx_HAL_Driver/Src/stm32l4xx_hal.c **** }
 1248              		.loc 1 747 1 is_stmt 0 view .LVU212
 1249 000a 7047     		bx	lr
 1250              	.L125:
 1251              		.align	2
 1252              	.L124:
 1253 000c 00000140 		.word	1073807360
 1254              		.cfi_endproc
 1255              	.LFE326:
 1257              		.global	uwTickFreq
ARM GAS  /tmp/ccYK2ZYU.s 			page 36


 1258              		.global	uwTickPrio
 1259              		.comm	uwTick,4,4
 1260              		.section	.data.uwTickFreq,"aw"
 1261              		.set	.LANCHOR0,. + 0
 1264              	uwTickFreq:
 1265 0000 01       		.byte	1
 1266              		.section	.data.uwTickPrio,"aw"
 1267              		.align	2
 1268              		.set	.LANCHOR1,. + 0
 1271              	uwTickPrio:
 1272 0000 10000000 		.word	16
 1273              		.text
 1274              	.Letext0:
 1275              		.file 2 "/opt/gcc-arm-none-eabi-9-2020-q2/arm-none-eabi/include/machine/_default_types.h"
 1276              		.file 3 "/opt/gcc-arm-none-eabi-9-2020-q2/arm-none-eabi/include/sys/_stdint.h"
 1277              		.file 4 "Drivers/CMSIS/Include/core_cm4.h"
 1278              		.file 5 "Drivers/CMSIS/Device/ST/STM32L4xx/Include/system_stm32l4xx.h"
 1279              		.file 6 "Drivers/CMSIS/Device/ST/STM32L4xx/Include/stm32l452xx.h"
 1280              		.file 7 "Drivers/STM32L4xx_HAL_Driver/Inc/stm32l4xx_hal_def.h"
 1281              		.file 8 "Drivers/STM32L4xx_HAL_Driver/Inc/stm32l4xx_hal_flash.h"
 1282              		.file 9 "Drivers/STM32L4xx_HAL_Driver/Inc/stm32l4xx_hal.h"
 1283              		.file 10 "Drivers/STM32L4xx_HAL_Driver/Inc/stm32l4xx_hal_cortex.h"
ARM GAS  /tmp/ccYK2ZYU.s 			page 37

