ARM GAS  /tmp/ccnGFKtF.s 			page 1


   1              		.cpu cortex-m4
   2              		.eabi_attribute 27, 1
   3              		.eabi_attribute 28, 1
   4              		.eabi_attribute 20, 1
   5              		.eabi_attribute 21, 1
   6              		.eabi_attribute 23, 3
   7              		.eabi_attribute 24, 1
   8              		.eabi_attribute 25, 1
   9              		.eabi_attribute 26, 1
  10              		.eabi_attribute 30, 1
  11              		.eabi_attribute 34, 1
  12              		.eabi_attribute 18, 4
  13              		.file	"usbd_conf.c"
  14              		.text
  15              	.Ltext0:
  16              		.cfi_sections	.debug_frame
  17              		.section	.text.SystemClockConfig_Resume,"ax",%progbits
  18              		.align	1
  19              		.arch armv7e-m
  20              		.syntax unified
  21              		.thumb
  22              		.thumb_func
  23              		.fpu fpv4-sp-d16
  25              	SystemClockConfig_Resume:
  26              	.LFB327:
  27              		.file 1 "Src/usbd_conf.c"
   1:Src/usbd_conf.c **** /* USER CODE BEGIN Header */
   2:Src/usbd_conf.c **** /**
   3:Src/usbd_conf.c ****   ******************************************************************************
   4:Src/usbd_conf.c ****   * @file           : usbd_conf.c
   5:Src/usbd_conf.c ****   * @version        : v2.0_Cube
   6:Src/usbd_conf.c ****   * @brief          : This file implements the board support package for the USB device library
   7:Src/usbd_conf.c ****   ******************************************************************************
   8:Src/usbd_conf.c ****   * @attention
   9:Src/usbd_conf.c ****   *
  10:Src/usbd_conf.c ****   * <h2><center>&copy; Copyright (c) 2021 STMicroelectronics.
  11:Src/usbd_conf.c ****   * All rights reserved.</center></h2>
  12:Src/usbd_conf.c ****   *
  13:Src/usbd_conf.c ****   * This software component is licensed by ST under Ultimate Liberty license
  14:Src/usbd_conf.c ****   * SLA0044, the "License"; You may not use this file except in compliance with
  15:Src/usbd_conf.c ****   * the License. You may obtain a copy of the License at:
  16:Src/usbd_conf.c ****   *                             www.st.com/SLA0044
  17:Src/usbd_conf.c ****   *
  18:Src/usbd_conf.c ****   ******************************************************************************
  19:Src/usbd_conf.c ****   */
  20:Src/usbd_conf.c **** /* USER CODE END Header */
  21:Src/usbd_conf.c **** 
  22:Src/usbd_conf.c **** /* Includes ------------------------------------------------------------------*/
  23:Src/usbd_conf.c **** #include "stm32l4xx.h"
  24:Src/usbd_conf.c **** #include "stm32l4xx_hal.h"
  25:Src/usbd_conf.c **** #include "usbd_def.h"
  26:Src/usbd_conf.c **** #include "usbd_core.h"
  27:Src/usbd_conf.c **** #include "usbd_cdc.h"
  28:Src/usbd_conf.c **** 
  29:Src/usbd_conf.c **** /* USER CODE BEGIN Includes */
  30:Src/usbd_conf.c **** 
  31:Src/usbd_conf.c **** /* USER CODE END Includes */
ARM GAS  /tmp/ccnGFKtF.s 			page 2


  32:Src/usbd_conf.c **** 
  33:Src/usbd_conf.c **** /* Private typedef -----------------------------------------------------------*/
  34:Src/usbd_conf.c **** /* Private define ------------------------------------------------------------*/
  35:Src/usbd_conf.c **** /* Private macro -------------------------------------------------------------*/
  36:Src/usbd_conf.c **** 
  37:Src/usbd_conf.c **** /* USER CODE BEGIN PV */
  38:Src/usbd_conf.c **** /* Private variables ---------------------------------------------------------*/
  39:Src/usbd_conf.c **** 
  40:Src/usbd_conf.c **** /* USER CODE END PV */
  41:Src/usbd_conf.c **** 
  42:Src/usbd_conf.c **** PCD_HandleTypeDef hpcd_USB_FS;
  43:Src/usbd_conf.c **** void Error_Handler(void);
  44:Src/usbd_conf.c **** 
  45:Src/usbd_conf.c **** /* USER CODE BEGIN 0 */
  46:Src/usbd_conf.c **** 
  47:Src/usbd_conf.c **** /* USER CODE END 0 */
  48:Src/usbd_conf.c **** 
  49:Src/usbd_conf.c **** /* Exported function prototypes ----------------------------------------------*/
  50:Src/usbd_conf.c **** extern USBD_StatusTypeDef USBD_LL_BatteryCharging(USBD_HandleTypeDef *pdev);
  51:Src/usbd_conf.c **** 
  52:Src/usbd_conf.c **** /* USER CODE BEGIN PFP */
  53:Src/usbd_conf.c **** /* Private function prototypes -----------------------------------------------*/
  54:Src/usbd_conf.c **** 
  55:Src/usbd_conf.c **** /* USER CODE END PFP */
  56:Src/usbd_conf.c **** 
  57:Src/usbd_conf.c **** /* Private functions ---------------------------------------------------------*/
  58:Src/usbd_conf.c **** 
  59:Src/usbd_conf.c **** /* USER CODE BEGIN 1 */
  60:Src/usbd_conf.c **** static void SystemClockConfig_Resume(void);
  61:Src/usbd_conf.c **** 
  62:Src/usbd_conf.c **** /* USER CODE END 1 */
  63:Src/usbd_conf.c **** extern void SystemClock_Config(void);
  64:Src/usbd_conf.c **** 
  65:Src/usbd_conf.c **** /*******************************************************************************
  66:Src/usbd_conf.c ****                        LL Driver Callbacks (PCD -> USB Device Library)
  67:Src/usbd_conf.c **** *******************************************************************************/
  68:Src/usbd_conf.c **** /* MSP Init */
  69:Src/usbd_conf.c **** 
  70:Src/usbd_conf.c **** void HAL_PCD_MspInit(PCD_HandleTypeDef* pcdHandle)
  71:Src/usbd_conf.c **** {
  72:Src/usbd_conf.c ****   GPIO_InitTypeDef GPIO_InitStruct = {0};
  73:Src/usbd_conf.c ****   if(pcdHandle->Instance==USB)
  74:Src/usbd_conf.c ****   {
  75:Src/usbd_conf.c ****   /* USER CODE BEGIN USB_MspInit 0 */
  76:Src/usbd_conf.c **** 
  77:Src/usbd_conf.c ****   /* USER CODE END USB_MspInit 0 */
  78:Src/usbd_conf.c **** 
  79:Src/usbd_conf.c ****     __HAL_RCC_GPIOA_CLK_ENABLE();
  80:Src/usbd_conf.c ****     /**USB GPIO Configuration
  81:Src/usbd_conf.c ****     PA11     ------> USB_DM
  82:Src/usbd_conf.c ****     PA12     ------> USB_DP
  83:Src/usbd_conf.c ****     */
  84:Src/usbd_conf.c ****     GPIO_InitStruct.Pin = GPIO_PIN_11|GPIO_PIN_12;
  85:Src/usbd_conf.c ****     GPIO_InitStruct.Mode = GPIO_MODE_AF_PP;
  86:Src/usbd_conf.c ****     GPIO_InitStruct.Pull = GPIO_NOPULL;
  87:Src/usbd_conf.c ****     GPIO_InitStruct.Speed = GPIO_SPEED_FREQ_VERY_HIGH;
  88:Src/usbd_conf.c ****     GPIO_InitStruct.Alternate = GPIO_AF10_USB_FS;
ARM GAS  /tmp/ccnGFKtF.s 			page 3


  89:Src/usbd_conf.c ****     HAL_GPIO_Init(GPIOA, &GPIO_InitStruct);
  90:Src/usbd_conf.c **** 
  91:Src/usbd_conf.c ****     /* Peripheral clock enable */
  92:Src/usbd_conf.c ****     __HAL_RCC_USB_CLK_ENABLE();
  93:Src/usbd_conf.c **** 
  94:Src/usbd_conf.c ****     /* Peripheral interrupt init */
  95:Src/usbd_conf.c ****     HAL_NVIC_SetPriority(USB_IRQn, 0, 0);
  96:Src/usbd_conf.c ****     HAL_NVIC_EnableIRQ(USB_IRQn);
  97:Src/usbd_conf.c ****   /* USER CODE BEGIN USB_MspInit 1 */
  98:Src/usbd_conf.c **** 
  99:Src/usbd_conf.c ****   /* USER CODE END USB_MspInit 1 */
 100:Src/usbd_conf.c ****   }
 101:Src/usbd_conf.c **** }
 102:Src/usbd_conf.c **** 
 103:Src/usbd_conf.c **** void HAL_PCD_MspDeInit(PCD_HandleTypeDef* pcdHandle)
 104:Src/usbd_conf.c **** {
 105:Src/usbd_conf.c ****   if(pcdHandle->Instance==USB)
 106:Src/usbd_conf.c ****   {
 107:Src/usbd_conf.c ****   /* USER CODE BEGIN USB_MspDeInit 0 */
 108:Src/usbd_conf.c **** 
 109:Src/usbd_conf.c ****   /* USER CODE END USB_MspDeInit 0 */
 110:Src/usbd_conf.c ****     /* Peripheral clock disable */
 111:Src/usbd_conf.c ****     __HAL_RCC_USB_CLK_DISABLE();
 112:Src/usbd_conf.c **** 
 113:Src/usbd_conf.c ****     /**USB GPIO Configuration
 114:Src/usbd_conf.c ****     PA11     ------> USB_DM
 115:Src/usbd_conf.c ****     PA12     ------> USB_DP
 116:Src/usbd_conf.c ****     */
 117:Src/usbd_conf.c ****     HAL_GPIO_DeInit(GPIOA, GPIO_PIN_11|GPIO_PIN_12);
 118:Src/usbd_conf.c **** 
 119:Src/usbd_conf.c ****     /* Peripheral interrupt Deinit*/
 120:Src/usbd_conf.c ****     HAL_NVIC_DisableIRQ(USB_IRQn);
 121:Src/usbd_conf.c **** 
 122:Src/usbd_conf.c ****   /* USER CODE BEGIN USB_MspDeInit 1 */
 123:Src/usbd_conf.c **** 
 124:Src/usbd_conf.c ****   /* USER CODE END USB_MspDeInit 1 */
 125:Src/usbd_conf.c ****   }
 126:Src/usbd_conf.c **** }
 127:Src/usbd_conf.c **** 
 128:Src/usbd_conf.c **** /**
 129:Src/usbd_conf.c ****   * @brief  Setup stage callback
 130:Src/usbd_conf.c ****   * @param  hpcd: PCD handle
 131:Src/usbd_conf.c ****   * @retval None
 132:Src/usbd_conf.c ****   */
 133:Src/usbd_conf.c **** #if (USE_HAL_PCD_REGISTER_CALLBACKS == 1U)
 134:Src/usbd_conf.c **** static void PCD_SetupStageCallback(PCD_HandleTypeDef *hpcd)
 135:Src/usbd_conf.c **** #else
 136:Src/usbd_conf.c **** void HAL_PCD_SetupStageCallback(PCD_HandleTypeDef *hpcd)
 137:Src/usbd_conf.c **** #endif /* USE_HAL_PCD_REGISTER_CALLBACKS */
 138:Src/usbd_conf.c **** {
 139:Src/usbd_conf.c ****   USBD_LL_SetupStage((USBD_HandleTypeDef*)hpcd->pData, (uint8_t *)hpcd->Setup);
 140:Src/usbd_conf.c **** }
 141:Src/usbd_conf.c **** 
 142:Src/usbd_conf.c **** /**
 143:Src/usbd_conf.c ****   * @brief  Data Out stage callback.
 144:Src/usbd_conf.c ****   * @param  hpcd: PCD handle
 145:Src/usbd_conf.c ****   * @param  epnum: Endpoint number
ARM GAS  /tmp/ccnGFKtF.s 			page 4


 146:Src/usbd_conf.c ****   * @retval None
 147:Src/usbd_conf.c ****   */
 148:Src/usbd_conf.c **** #if (USE_HAL_PCD_REGISTER_CALLBACKS == 1U)
 149:Src/usbd_conf.c **** static void PCD_DataOutStageCallback(PCD_HandleTypeDef *hpcd, uint8_t epnum)
 150:Src/usbd_conf.c **** #else
 151:Src/usbd_conf.c **** void HAL_PCD_DataOutStageCallback(PCD_HandleTypeDef *hpcd, uint8_t epnum)
 152:Src/usbd_conf.c **** #endif /* USE_HAL_PCD_REGISTER_CALLBACKS */
 153:Src/usbd_conf.c **** {
 154:Src/usbd_conf.c ****   USBD_LL_DataOutStage((USBD_HandleTypeDef*)hpcd->pData, epnum, hpcd->OUT_ep[epnum].xfer_buff);
 155:Src/usbd_conf.c **** }
 156:Src/usbd_conf.c **** 
 157:Src/usbd_conf.c **** /**
 158:Src/usbd_conf.c ****   * @brief  Data In stage callback.
 159:Src/usbd_conf.c ****   * @param  hpcd: PCD handle
 160:Src/usbd_conf.c ****   * @param  epnum: Endpoint number
 161:Src/usbd_conf.c ****   * @retval None
 162:Src/usbd_conf.c ****   */
 163:Src/usbd_conf.c **** #if (USE_HAL_PCD_REGISTER_CALLBACKS == 1U)
 164:Src/usbd_conf.c **** static void PCD_DataInStageCallback(PCD_HandleTypeDef *hpcd, uint8_t epnum)
 165:Src/usbd_conf.c **** #else
 166:Src/usbd_conf.c **** void HAL_PCD_DataInStageCallback(PCD_HandleTypeDef *hpcd, uint8_t epnum)
 167:Src/usbd_conf.c **** #endif /* USE_HAL_PCD_REGISTER_CALLBACKS */
 168:Src/usbd_conf.c **** {
 169:Src/usbd_conf.c ****   USBD_LL_DataInStage((USBD_HandleTypeDef*)hpcd->pData, epnum, hpcd->IN_ep[epnum].xfer_buff);
 170:Src/usbd_conf.c **** }
 171:Src/usbd_conf.c **** 
 172:Src/usbd_conf.c **** /**
 173:Src/usbd_conf.c ****   * @brief  SOF callback.
 174:Src/usbd_conf.c ****   * @param  hpcd: PCD handle
 175:Src/usbd_conf.c ****   * @retval None
 176:Src/usbd_conf.c ****   */
 177:Src/usbd_conf.c **** #if (USE_HAL_PCD_REGISTER_CALLBACKS == 1U)
 178:Src/usbd_conf.c **** static void PCD_SOFCallback(PCD_HandleTypeDef *hpcd)
 179:Src/usbd_conf.c **** #else
 180:Src/usbd_conf.c **** void HAL_PCD_SOFCallback(PCD_HandleTypeDef *hpcd)
 181:Src/usbd_conf.c **** #endif /* USE_HAL_PCD_REGISTER_CALLBACKS */
 182:Src/usbd_conf.c **** {
 183:Src/usbd_conf.c ****   USBD_LL_SOF((USBD_HandleTypeDef*)hpcd->pData);
 184:Src/usbd_conf.c **** }
 185:Src/usbd_conf.c **** 
 186:Src/usbd_conf.c **** /**
 187:Src/usbd_conf.c ****   * @brief  Reset callback.
 188:Src/usbd_conf.c ****   * @param  hpcd: PCD handle
 189:Src/usbd_conf.c ****   * @retval None
 190:Src/usbd_conf.c ****   */
 191:Src/usbd_conf.c **** #if (USE_HAL_PCD_REGISTER_CALLBACKS == 1U)
 192:Src/usbd_conf.c **** static void PCD_ResetCallback(PCD_HandleTypeDef *hpcd)
 193:Src/usbd_conf.c **** #else
 194:Src/usbd_conf.c **** void HAL_PCD_ResetCallback(PCD_HandleTypeDef *hpcd)
 195:Src/usbd_conf.c **** #endif /* USE_HAL_PCD_REGISTER_CALLBACKS */
 196:Src/usbd_conf.c **** {
 197:Src/usbd_conf.c ****   USBD_SpeedTypeDef speed = USBD_SPEED_FULL;
 198:Src/usbd_conf.c **** 
 199:Src/usbd_conf.c ****   if ( hpcd->Init.speed != PCD_SPEED_FULL)
 200:Src/usbd_conf.c ****   {
 201:Src/usbd_conf.c ****     Error_Handler();
 202:Src/usbd_conf.c ****   }
ARM GAS  /tmp/ccnGFKtF.s 			page 5


 203:Src/usbd_conf.c ****     /* Set Speed. */
 204:Src/usbd_conf.c ****   USBD_LL_SetSpeed((USBD_HandleTypeDef*)hpcd->pData, speed);
 205:Src/usbd_conf.c **** 
 206:Src/usbd_conf.c ****   /* Reset Device. */
 207:Src/usbd_conf.c ****   USBD_LL_Reset((USBD_HandleTypeDef*)hpcd->pData);
 208:Src/usbd_conf.c **** }
 209:Src/usbd_conf.c **** 
 210:Src/usbd_conf.c **** /**
 211:Src/usbd_conf.c ****   * @brief  Suspend callback.
 212:Src/usbd_conf.c ****   * When Low power mode is enabled the debug cannot be used (IAR, Keil doesn't support it)
 213:Src/usbd_conf.c ****   * @param  hpcd: PCD handle
 214:Src/usbd_conf.c ****   * @retval None
 215:Src/usbd_conf.c ****   */
 216:Src/usbd_conf.c **** #if (USE_HAL_PCD_REGISTER_CALLBACKS == 1U)
 217:Src/usbd_conf.c **** static void PCD_SuspendCallback(PCD_HandleTypeDef *hpcd)
 218:Src/usbd_conf.c **** #else
 219:Src/usbd_conf.c **** void HAL_PCD_SuspendCallback(PCD_HandleTypeDef *hpcd)
 220:Src/usbd_conf.c **** #endif /* USE_HAL_PCD_REGISTER_CALLBACKS */
 221:Src/usbd_conf.c **** {
 222:Src/usbd_conf.c ****   /* Inform USB library that core enters in suspend Mode. */
 223:Src/usbd_conf.c ****   USBD_LL_Suspend((USBD_HandleTypeDef*)hpcd->pData);
 224:Src/usbd_conf.c ****   /* Enter in STOP mode. */
 225:Src/usbd_conf.c ****   /* USER CODE BEGIN 2 */
 226:Src/usbd_conf.c ****   if (hpcd->Init.low_power_enable)
 227:Src/usbd_conf.c ****   {
 228:Src/usbd_conf.c ****     /* Set SLEEPDEEP bit and SleepOnExit of Cortex System Control Register. */
 229:Src/usbd_conf.c ****     SCB->SCR |= (uint32_t)((uint32_t)(SCB_SCR_SLEEPDEEP_Msk | SCB_SCR_SLEEPONEXIT_Msk));
 230:Src/usbd_conf.c ****   }
 231:Src/usbd_conf.c ****   /* USER CODE END 2 */
 232:Src/usbd_conf.c **** }
 233:Src/usbd_conf.c **** 
 234:Src/usbd_conf.c **** /**
 235:Src/usbd_conf.c ****   * @brief  Resume callback.
 236:Src/usbd_conf.c ****   * When Low power mode is enabled the debug cannot be used (IAR, Keil doesn't support it)
 237:Src/usbd_conf.c ****   * @param  hpcd: PCD handle
 238:Src/usbd_conf.c ****   * @retval None
 239:Src/usbd_conf.c ****   */
 240:Src/usbd_conf.c **** #if (USE_HAL_PCD_REGISTER_CALLBACKS == 1U)
 241:Src/usbd_conf.c **** static void PCD_ResumeCallback(PCD_HandleTypeDef *hpcd)
 242:Src/usbd_conf.c **** #else
 243:Src/usbd_conf.c **** void HAL_PCD_ResumeCallback(PCD_HandleTypeDef *hpcd)
 244:Src/usbd_conf.c **** #endif /* USE_HAL_PCD_REGISTER_CALLBACKS */
 245:Src/usbd_conf.c **** {
 246:Src/usbd_conf.c **** 
 247:Src/usbd_conf.c ****   /* USER CODE BEGIN 3 */
 248:Src/usbd_conf.c ****   if (hpcd->Init.low_power_enable)
 249:Src/usbd_conf.c ****   {
 250:Src/usbd_conf.c ****     /* Reset SLEEPDEEP bit of Cortex System Control Register. */
 251:Src/usbd_conf.c ****     SCB->SCR &= (uint32_t)~((uint32_t)(SCB_SCR_SLEEPDEEP_Msk | SCB_SCR_SLEEPONEXIT_Msk));
 252:Src/usbd_conf.c ****     SystemClockConfig_Resume();
 253:Src/usbd_conf.c ****   }
 254:Src/usbd_conf.c ****   /* USER CODE END 3 */
 255:Src/usbd_conf.c ****   USBD_LL_Resume((USBD_HandleTypeDef*)hpcd->pData);
 256:Src/usbd_conf.c **** }
 257:Src/usbd_conf.c **** 
 258:Src/usbd_conf.c **** /**
 259:Src/usbd_conf.c ****   * @brief  ISOOUTIncomplete callback.
ARM GAS  /tmp/ccnGFKtF.s 			page 6


 260:Src/usbd_conf.c ****   * @param  hpcd: PCD handle
 261:Src/usbd_conf.c ****   * @param  epnum: Endpoint number
 262:Src/usbd_conf.c ****   * @retval None
 263:Src/usbd_conf.c ****   */
 264:Src/usbd_conf.c **** #if (USE_HAL_PCD_REGISTER_CALLBACKS == 1U)
 265:Src/usbd_conf.c **** static void PCD_ISOOUTIncompleteCallback(PCD_HandleTypeDef *hpcd, uint8_t epnum)
 266:Src/usbd_conf.c **** #else
 267:Src/usbd_conf.c **** void HAL_PCD_ISOOUTIncompleteCallback(PCD_HandleTypeDef *hpcd, uint8_t epnum)
 268:Src/usbd_conf.c **** #endif /* USE_HAL_PCD_REGISTER_CALLBACKS */
 269:Src/usbd_conf.c **** {
 270:Src/usbd_conf.c ****   USBD_LL_IsoOUTIncomplete((USBD_HandleTypeDef*)hpcd->pData, epnum);
 271:Src/usbd_conf.c **** }
 272:Src/usbd_conf.c **** 
 273:Src/usbd_conf.c **** /**
 274:Src/usbd_conf.c ****   * @brief  ISOINIncomplete callback.
 275:Src/usbd_conf.c ****   * @param  hpcd: PCD handle
 276:Src/usbd_conf.c ****   * @param  epnum: Endpoint number
 277:Src/usbd_conf.c ****   * @retval None
 278:Src/usbd_conf.c ****   */
 279:Src/usbd_conf.c **** #if (USE_HAL_PCD_REGISTER_CALLBACKS == 1U)
 280:Src/usbd_conf.c **** static void PCD_ISOINIncompleteCallback(PCD_HandleTypeDef *hpcd, uint8_t epnum)
 281:Src/usbd_conf.c **** #else
 282:Src/usbd_conf.c **** void HAL_PCD_ISOINIncompleteCallback(PCD_HandleTypeDef *hpcd, uint8_t epnum)
 283:Src/usbd_conf.c **** #endif /* USE_HAL_PCD_REGISTER_CALLBACKS */
 284:Src/usbd_conf.c **** {
 285:Src/usbd_conf.c ****   USBD_LL_IsoINIncomplete((USBD_HandleTypeDef*)hpcd->pData, epnum);
 286:Src/usbd_conf.c **** }
 287:Src/usbd_conf.c **** 
 288:Src/usbd_conf.c **** /**
 289:Src/usbd_conf.c ****   * @brief  Connect callback.
 290:Src/usbd_conf.c ****   * @param  hpcd: PCD handle
 291:Src/usbd_conf.c ****   * @retval None
 292:Src/usbd_conf.c ****   */
 293:Src/usbd_conf.c **** #if (USE_HAL_PCD_REGISTER_CALLBACKS == 1U)
 294:Src/usbd_conf.c **** static void PCD_ConnectCallback(PCD_HandleTypeDef *hpcd)
 295:Src/usbd_conf.c **** #else
 296:Src/usbd_conf.c **** void HAL_PCD_ConnectCallback(PCD_HandleTypeDef *hpcd)
 297:Src/usbd_conf.c **** #endif /* USE_HAL_PCD_REGISTER_CALLBACKS */
 298:Src/usbd_conf.c **** {
 299:Src/usbd_conf.c ****   USBD_LL_DevConnected((USBD_HandleTypeDef*)hpcd->pData);
 300:Src/usbd_conf.c **** }
 301:Src/usbd_conf.c **** 
 302:Src/usbd_conf.c **** /**
 303:Src/usbd_conf.c ****   * @brief  Disconnect callback.
 304:Src/usbd_conf.c ****   * @param  hpcd: PCD handle
 305:Src/usbd_conf.c ****   * @retval None
 306:Src/usbd_conf.c ****   */
 307:Src/usbd_conf.c **** #if (USE_HAL_PCD_REGISTER_CALLBACKS == 1U)
 308:Src/usbd_conf.c **** static void PCD_DisconnectCallback(PCD_HandleTypeDef *hpcd)
 309:Src/usbd_conf.c **** #else
 310:Src/usbd_conf.c **** void HAL_PCD_DisconnectCallback(PCD_HandleTypeDef *hpcd)
 311:Src/usbd_conf.c **** #endif /* USE_HAL_PCD_REGISTER_CALLBACKS */
 312:Src/usbd_conf.c **** {
 313:Src/usbd_conf.c ****   USBD_LL_DevDisconnected((USBD_HandleTypeDef*)hpcd->pData);
 314:Src/usbd_conf.c **** }
 315:Src/usbd_conf.c **** 
 316:Src/usbd_conf.c **** /*******************************************************************************
ARM GAS  /tmp/ccnGFKtF.s 			page 7


 317:Src/usbd_conf.c ****                        LL Driver Interface (USB Device Library --> PCD)
 318:Src/usbd_conf.c **** *******************************************************************************/
 319:Src/usbd_conf.c **** 
 320:Src/usbd_conf.c **** /**
 321:Src/usbd_conf.c ****   * @brief  Initializes the low level portion of the device driver.
 322:Src/usbd_conf.c ****   * @param  pdev: Device handle
 323:Src/usbd_conf.c ****   * @retval USBD status
 324:Src/usbd_conf.c ****   */
 325:Src/usbd_conf.c **** USBD_StatusTypeDef USBD_LL_Init(USBD_HandleTypeDef *pdev)
 326:Src/usbd_conf.c **** {
 327:Src/usbd_conf.c ****   /* Init USB Ip. */
 328:Src/usbd_conf.c ****   /* Enable USB power on Pwrctrl CR2 register. */
 329:Src/usbd_conf.c ****   HAL_PWREx_EnableVddUSB();
 330:Src/usbd_conf.c ****   /* Link the driver to the stack. */
 331:Src/usbd_conf.c ****   hpcd_USB_FS.pData = pdev;
 332:Src/usbd_conf.c ****   pdev->pData = &hpcd_USB_FS;
 333:Src/usbd_conf.c **** 
 334:Src/usbd_conf.c ****   hpcd_USB_FS.Instance = USB;
 335:Src/usbd_conf.c ****   hpcd_USB_FS.Init.dev_endpoints = 8;
 336:Src/usbd_conf.c ****   hpcd_USB_FS.Init.speed = PCD_SPEED_FULL;
 337:Src/usbd_conf.c ****   hpcd_USB_FS.Init.phy_itface = PCD_PHY_EMBEDDED;
 338:Src/usbd_conf.c ****   hpcd_USB_FS.Init.Sof_enable = DISABLE;
 339:Src/usbd_conf.c ****   hpcd_USB_FS.Init.low_power_enable = DISABLE;
 340:Src/usbd_conf.c ****   hpcd_USB_FS.Init.lpm_enable = DISABLE;
 341:Src/usbd_conf.c ****   hpcd_USB_FS.Init.battery_charging_enable = DISABLE;
 342:Src/usbd_conf.c ****   if (HAL_PCD_Init(&hpcd_USB_FS) != HAL_OK)
 343:Src/usbd_conf.c ****   {
 344:Src/usbd_conf.c ****     Error_Handler( );
 345:Src/usbd_conf.c ****   }
 346:Src/usbd_conf.c **** 
 347:Src/usbd_conf.c **** #if (USE_HAL_PCD_REGISTER_CALLBACKS == 1U)
 348:Src/usbd_conf.c ****   /* Register USB PCD CallBacks */
 349:Src/usbd_conf.c ****   HAL_PCD_RegisterCallback(&hpcd_USB_FS, HAL_PCD_SOF_CB_ID, PCD_SOFCallback);
 350:Src/usbd_conf.c ****   HAL_PCD_RegisterCallback(&hpcd_USB_FS, HAL_PCD_SETUPSTAGE_CB_ID, PCD_SetupStageCallback);
 351:Src/usbd_conf.c ****   HAL_PCD_RegisterCallback(&hpcd_USB_FS, HAL_PCD_RESET_CB_ID, PCD_ResetCallback);
 352:Src/usbd_conf.c ****   HAL_PCD_RegisterCallback(&hpcd_USB_FS, HAL_PCD_SUSPEND_CB_ID, PCD_SuspendCallback);
 353:Src/usbd_conf.c ****   HAL_PCD_RegisterCallback(&hpcd_USB_FS, HAL_PCD_RESUME_CB_ID, PCD_ResumeCallback);
 354:Src/usbd_conf.c ****   HAL_PCD_RegisterCallback(&hpcd_USB_FS, HAL_PCD_CONNECT_CB_ID, PCD_ConnectCallback);
 355:Src/usbd_conf.c ****   HAL_PCD_RegisterCallback(&hpcd_USB_FS, HAL_PCD_DISCONNECT_CB_ID, PCD_DisconnectCallback);
 356:Src/usbd_conf.c **** 
 357:Src/usbd_conf.c ****   HAL_PCD_RegisterDataOutStageCallback(&hpcd_USB_FS, PCD_DataOutStageCallback);
 358:Src/usbd_conf.c ****   HAL_PCD_RegisterDataInStageCallback(&hpcd_USB_FS, PCD_DataInStageCallback);
 359:Src/usbd_conf.c ****   HAL_PCD_RegisterIsoOutIncpltCallback(&hpcd_USB_FS, PCD_ISOOUTIncompleteCallback);
 360:Src/usbd_conf.c ****   HAL_PCD_RegisterIsoInIncpltCallback(&hpcd_USB_FS, PCD_ISOINIncompleteCallback);
 361:Src/usbd_conf.c **** #endif /* USE_HAL_PCD_REGISTER_CALLBACKS */
 362:Src/usbd_conf.c ****   /* USER CODE BEGIN EndPoint_Configuration */
 363:Src/usbd_conf.c ****   HAL_PCDEx_PMAConfig((PCD_HandleTypeDef*)pdev->pData , 0x00 , PCD_SNG_BUF, 0x18);
 364:Src/usbd_conf.c ****   HAL_PCDEx_PMAConfig((PCD_HandleTypeDef*)pdev->pData , 0x80 , PCD_SNG_BUF, 0x58);
 365:Src/usbd_conf.c ****   /* USER CODE END EndPoint_Configuration */
 366:Src/usbd_conf.c ****   /* USER CODE BEGIN EndPoint_Configuration_CDC */
 367:Src/usbd_conf.c ****   HAL_PCDEx_PMAConfig((PCD_HandleTypeDef*)pdev->pData , 0x81 , PCD_SNG_BUF, 0xC0);
 368:Src/usbd_conf.c ****   HAL_PCDEx_PMAConfig((PCD_HandleTypeDef*)pdev->pData , 0x01 , PCD_SNG_BUF, 0x110);
 369:Src/usbd_conf.c ****   HAL_PCDEx_PMAConfig((PCD_HandleTypeDef*)pdev->pData , 0x82 , PCD_SNG_BUF, 0x100);
 370:Src/usbd_conf.c ****   /* USER CODE END EndPoint_Configuration_CDC */
 371:Src/usbd_conf.c ****   return USBD_OK;
 372:Src/usbd_conf.c **** }
 373:Src/usbd_conf.c **** 
ARM GAS  /tmp/ccnGFKtF.s 			page 8


 374:Src/usbd_conf.c **** /**
 375:Src/usbd_conf.c ****   * @brief  De-Initializes the low level portion of the device driver.
 376:Src/usbd_conf.c ****   * @param  pdev: Device handle
 377:Src/usbd_conf.c ****   * @retval USBD status
 378:Src/usbd_conf.c ****   */
 379:Src/usbd_conf.c **** USBD_StatusTypeDef USBD_LL_DeInit(USBD_HandleTypeDef *pdev)
 380:Src/usbd_conf.c **** {
 381:Src/usbd_conf.c ****   HAL_StatusTypeDef hal_status = HAL_OK;
 382:Src/usbd_conf.c ****   USBD_StatusTypeDef usb_status = USBD_OK;
 383:Src/usbd_conf.c **** 
 384:Src/usbd_conf.c ****   hal_status = HAL_PCD_DeInit(pdev->pData);
 385:Src/usbd_conf.c **** 
 386:Src/usbd_conf.c ****   switch (hal_status) {
 387:Src/usbd_conf.c ****     case HAL_OK :
 388:Src/usbd_conf.c ****       usb_status = USBD_OK;
 389:Src/usbd_conf.c ****     break;
 390:Src/usbd_conf.c ****     case HAL_ERROR :
 391:Src/usbd_conf.c ****       usb_status = USBD_FAIL;
 392:Src/usbd_conf.c ****     break;
 393:Src/usbd_conf.c ****     case HAL_BUSY :
 394:Src/usbd_conf.c ****       usb_status = USBD_BUSY;
 395:Src/usbd_conf.c ****     break;
 396:Src/usbd_conf.c ****     case HAL_TIMEOUT :
 397:Src/usbd_conf.c ****       usb_status = USBD_FAIL;
 398:Src/usbd_conf.c ****     break;
 399:Src/usbd_conf.c ****     default :
 400:Src/usbd_conf.c ****       usb_status = USBD_FAIL;
 401:Src/usbd_conf.c ****     break;
 402:Src/usbd_conf.c ****   }
 403:Src/usbd_conf.c ****   return usb_status;
 404:Src/usbd_conf.c **** }
 405:Src/usbd_conf.c **** 
 406:Src/usbd_conf.c **** /**
 407:Src/usbd_conf.c ****   * @brief  Starts the low level portion of the device driver.
 408:Src/usbd_conf.c ****   * @param  pdev: Device handle
 409:Src/usbd_conf.c ****   * @retval USBD status
 410:Src/usbd_conf.c ****   */
 411:Src/usbd_conf.c **** USBD_StatusTypeDef USBD_LL_Start(USBD_HandleTypeDef *pdev)
 412:Src/usbd_conf.c **** {
 413:Src/usbd_conf.c ****   HAL_StatusTypeDef hal_status = HAL_OK;
 414:Src/usbd_conf.c ****   USBD_StatusTypeDef usb_status = USBD_OK;
 415:Src/usbd_conf.c **** 
 416:Src/usbd_conf.c ****   hal_status = HAL_PCD_Start(pdev->pData);
 417:Src/usbd_conf.c **** 
 418:Src/usbd_conf.c ****   switch (hal_status) {
 419:Src/usbd_conf.c ****     case HAL_OK :
 420:Src/usbd_conf.c ****       usb_status = USBD_OK;
 421:Src/usbd_conf.c ****     break;
 422:Src/usbd_conf.c ****     case HAL_ERROR :
 423:Src/usbd_conf.c ****       usb_status = USBD_FAIL;
 424:Src/usbd_conf.c ****     break;
 425:Src/usbd_conf.c ****     case HAL_BUSY :
 426:Src/usbd_conf.c ****       usb_status = USBD_BUSY;
 427:Src/usbd_conf.c ****     break;
 428:Src/usbd_conf.c ****     case HAL_TIMEOUT :
 429:Src/usbd_conf.c ****       usb_status = USBD_FAIL;
 430:Src/usbd_conf.c ****     break;
ARM GAS  /tmp/ccnGFKtF.s 			page 9


 431:Src/usbd_conf.c ****     default :
 432:Src/usbd_conf.c ****       usb_status = USBD_FAIL;
 433:Src/usbd_conf.c ****     break;
 434:Src/usbd_conf.c ****   }
 435:Src/usbd_conf.c ****   return usb_status;
 436:Src/usbd_conf.c **** }
 437:Src/usbd_conf.c **** 
 438:Src/usbd_conf.c **** /**
 439:Src/usbd_conf.c ****   * @brief  Stops the low level portion of the device driver.
 440:Src/usbd_conf.c ****   * @param  pdev: Device handle
 441:Src/usbd_conf.c ****   * @retval USBD status
 442:Src/usbd_conf.c ****   */
 443:Src/usbd_conf.c **** USBD_StatusTypeDef USBD_LL_Stop(USBD_HandleTypeDef *pdev)
 444:Src/usbd_conf.c **** {
 445:Src/usbd_conf.c ****   HAL_StatusTypeDef hal_status = HAL_OK;
 446:Src/usbd_conf.c ****   USBD_StatusTypeDef usb_status = USBD_OK;
 447:Src/usbd_conf.c **** 
 448:Src/usbd_conf.c ****   hal_status = HAL_PCD_Stop(pdev->pData);
 449:Src/usbd_conf.c **** 
 450:Src/usbd_conf.c ****   switch (hal_status) {
 451:Src/usbd_conf.c ****     case HAL_OK :
 452:Src/usbd_conf.c ****       usb_status = USBD_OK;
 453:Src/usbd_conf.c ****     break;
 454:Src/usbd_conf.c ****     case HAL_ERROR :
 455:Src/usbd_conf.c ****       usb_status = USBD_FAIL;
 456:Src/usbd_conf.c ****     break;
 457:Src/usbd_conf.c ****     case HAL_BUSY :
 458:Src/usbd_conf.c ****       usb_status = USBD_BUSY;
 459:Src/usbd_conf.c ****     break;
 460:Src/usbd_conf.c ****     case HAL_TIMEOUT :
 461:Src/usbd_conf.c ****       usb_status = USBD_FAIL;
 462:Src/usbd_conf.c ****     break;
 463:Src/usbd_conf.c ****     default :
 464:Src/usbd_conf.c ****       usb_status = USBD_FAIL;
 465:Src/usbd_conf.c ****     break;
 466:Src/usbd_conf.c ****   }
 467:Src/usbd_conf.c ****   return usb_status;
 468:Src/usbd_conf.c **** }
 469:Src/usbd_conf.c **** 
 470:Src/usbd_conf.c **** /**
 471:Src/usbd_conf.c ****   * @brief  Opens an endpoint of the low level driver.
 472:Src/usbd_conf.c ****   * @param  pdev: Device handle
 473:Src/usbd_conf.c ****   * @param  ep_addr: Endpoint number
 474:Src/usbd_conf.c ****   * @param  ep_type: Endpoint type
 475:Src/usbd_conf.c ****   * @param  ep_mps: Endpoint max packet size
 476:Src/usbd_conf.c ****   * @retval USBD status
 477:Src/usbd_conf.c ****   */
 478:Src/usbd_conf.c **** USBD_StatusTypeDef USBD_LL_OpenEP(USBD_HandleTypeDef *pdev, uint8_t ep_addr, uint8_t ep_type, uint1
 479:Src/usbd_conf.c **** {
 480:Src/usbd_conf.c ****   HAL_StatusTypeDef hal_status = HAL_OK;
 481:Src/usbd_conf.c ****   USBD_StatusTypeDef usb_status = USBD_OK;
 482:Src/usbd_conf.c **** 
 483:Src/usbd_conf.c ****   hal_status = HAL_PCD_EP_Open(pdev->pData, ep_addr, ep_mps, ep_type);
 484:Src/usbd_conf.c **** 
 485:Src/usbd_conf.c ****   switch (hal_status) {
 486:Src/usbd_conf.c ****     case HAL_OK :
 487:Src/usbd_conf.c ****       usb_status = USBD_OK;
ARM GAS  /tmp/ccnGFKtF.s 			page 10


 488:Src/usbd_conf.c ****     break;
 489:Src/usbd_conf.c ****     case HAL_ERROR :
 490:Src/usbd_conf.c ****       usb_status = USBD_FAIL;
 491:Src/usbd_conf.c ****     break;
 492:Src/usbd_conf.c ****     case HAL_BUSY :
 493:Src/usbd_conf.c ****       usb_status = USBD_BUSY;
 494:Src/usbd_conf.c ****     break;
 495:Src/usbd_conf.c ****     case HAL_TIMEOUT :
 496:Src/usbd_conf.c ****       usb_status = USBD_FAIL;
 497:Src/usbd_conf.c ****     break;
 498:Src/usbd_conf.c ****     default :
 499:Src/usbd_conf.c ****       usb_status = USBD_FAIL;
 500:Src/usbd_conf.c ****     break;
 501:Src/usbd_conf.c ****   }
 502:Src/usbd_conf.c ****   return usb_status;
 503:Src/usbd_conf.c **** }
 504:Src/usbd_conf.c **** 
 505:Src/usbd_conf.c **** /**
 506:Src/usbd_conf.c ****   * @brief  Closes an endpoint of the low level driver.
 507:Src/usbd_conf.c ****   * @param  pdev: Device handle
 508:Src/usbd_conf.c ****   * @param  ep_addr: Endpoint number
 509:Src/usbd_conf.c ****   * @retval USBD status
 510:Src/usbd_conf.c ****   */
 511:Src/usbd_conf.c **** USBD_StatusTypeDef USBD_LL_CloseEP(USBD_HandleTypeDef *pdev, uint8_t ep_addr)
 512:Src/usbd_conf.c **** {
 513:Src/usbd_conf.c ****   HAL_StatusTypeDef hal_status = HAL_OK;
 514:Src/usbd_conf.c ****   USBD_StatusTypeDef usb_status = USBD_OK;
 515:Src/usbd_conf.c **** 
 516:Src/usbd_conf.c ****   hal_status = HAL_PCD_EP_Close(pdev->pData, ep_addr);
 517:Src/usbd_conf.c **** 
 518:Src/usbd_conf.c ****   switch (hal_status) {
 519:Src/usbd_conf.c ****     case HAL_OK :
 520:Src/usbd_conf.c ****       usb_status = USBD_OK;
 521:Src/usbd_conf.c ****     break;
 522:Src/usbd_conf.c ****     case HAL_ERROR :
 523:Src/usbd_conf.c ****       usb_status = USBD_FAIL;
 524:Src/usbd_conf.c ****     break;
 525:Src/usbd_conf.c ****     case HAL_BUSY :
 526:Src/usbd_conf.c ****       usb_status = USBD_BUSY;
 527:Src/usbd_conf.c ****     break;
 528:Src/usbd_conf.c ****     case HAL_TIMEOUT :
 529:Src/usbd_conf.c ****       usb_status = USBD_FAIL;
 530:Src/usbd_conf.c ****     break;
 531:Src/usbd_conf.c ****     default :
 532:Src/usbd_conf.c ****       usb_status = USBD_FAIL;
 533:Src/usbd_conf.c ****     break;
 534:Src/usbd_conf.c ****   }
 535:Src/usbd_conf.c ****   return usb_status;
 536:Src/usbd_conf.c **** }
 537:Src/usbd_conf.c **** 
 538:Src/usbd_conf.c **** /**
 539:Src/usbd_conf.c ****   * @brief  Flushes an endpoint of the Low Level Driver.
 540:Src/usbd_conf.c ****   * @param  pdev: Device handle
 541:Src/usbd_conf.c ****   * @param  ep_addr: Endpoint number
 542:Src/usbd_conf.c ****   * @retval USBD status
 543:Src/usbd_conf.c ****   */
 544:Src/usbd_conf.c **** USBD_StatusTypeDef USBD_LL_FlushEP(USBD_HandleTypeDef *pdev, uint8_t ep_addr)
ARM GAS  /tmp/ccnGFKtF.s 			page 11


 545:Src/usbd_conf.c **** {
 546:Src/usbd_conf.c ****   HAL_StatusTypeDef hal_status = HAL_OK;
 547:Src/usbd_conf.c ****   USBD_StatusTypeDef usb_status = USBD_OK;
 548:Src/usbd_conf.c **** 
 549:Src/usbd_conf.c ****   hal_status = HAL_PCD_EP_Flush(pdev->pData, ep_addr);
 550:Src/usbd_conf.c **** 
 551:Src/usbd_conf.c ****   switch (hal_status) {
 552:Src/usbd_conf.c ****     case HAL_OK :
 553:Src/usbd_conf.c ****       usb_status = USBD_OK;
 554:Src/usbd_conf.c ****     break;
 555:Src/usbd_conf.c ****     case HAL_ERROR :
 556:Src/usbd_conf.c ****       usb_status = USBD_FAIL;
 557:Src/usbd_conf.c ****     break;
 558:Src/usbd_conf.c ****     case HAL_BUSY :
 559:Src/usbd_conf.c ****       usb_status = USBD_BUSY;
 560:Src/usbd_conf.c ****     break;
 561:Src/usbd_conf.c ****     case HAL_TIMEOUT :
 562:Src/usbd_conf.c ****       usb_status = USBD_FAIL;
 563:Src/usbd_conf.c ****     break;
 564:Src/usbd_conf.c ****     default :
 565:Src/usbd_conf.c ****       usb_status = USBD_FAIL;
 566:Src/usbd_conf.c ****     break;
 567:Src/usbd_conf.c ****   }
 568:Src/usbd_conf.c ****   return usb_status;
 569:Src/usbd_conf.c **** }
 570:Src/usbd_conf.c **** 
 571:Src/usbd_conf.c **** /**
 572:Src/usbd_conf.c ****   * @brief  Sets a Stall condition on an endpoint of the Low Level Driver.
 573:Src/usbd_conf.c ****   * @param  pdev: Device handle
 574:Src/usbd_conf.c ****   * @param  ep_addr: Endpoint number
 575:Src/usbd_conf.c ****   * @retval USBD status
 576:Src/usbd_conf.c ****   */
 577:Src/usbd_conf.c **** USBD_StatusTypeDef USBD_LL_StallEP(USBD_HandleTypeDef *pdev, uint8_t ep_addr)
 578:Src/usbd_conf.c **** {
 579:Src/usbd_conf.c ****   HAL_StatusTypeDef hal_status = HAL_OK;
 580:Src/usbd_conf.c ****   USBD_StatusTypeDef usb_status = USBD_OK;
 581:Src/usbd_conf.c **** 
 582:Src/usbd_conf.c ****   hal_status = HAL_PCD_EP_SetStall(pdev->pData, ep_addr);
 583:Src/usbd_conf.c **** 
 584:Src/usbd_conf.c ****   switch (hal_status) {
 585:Src/usbd_conf.c ****     case HAL_OK :
 586:Src/usbd_conf.c ****       usb_status = USBD_OK;
 587:Src/usbd_conf.c ****     break;
 588:Src/usbd_conf.c ****     case HAL_ERROR :
 589:Src/usbd_conf.c ****       usb_status = USBD_FAIL;
 590:Src/usbd_conf.c ****     break;
 591:Src/usbd_conf.c ****     case HAL_BUSY :
 592:Src/usbd_conf.c ****       usb_status = USBD_BUSY;
 593:Src/usbd_conf.c ****     break;
 594:Src/usbd_conf.c ****     case HAL_TIMEOUT :
 595:Src/usbd_conf.c ****       usb_status = USBD_FAIL;
 596:Src/usbd_conf.c ****     break;
 597:Src/usbd_conf.c ****     default :
 598:Src/usbd_conf.c ****       usb_status = USBD_FAIL;
 599:Src/usbd_conf.c ****     break;
 600:Src/usbd_conf.c ****   }
 601:Src/usbd_conf.c ****   return usb_status;
ARM GAS  /tmp/ccnGFKtF.s 			page 12


 602:Src/usbd_conf.c **** }
 603:Src/usbd_conf.c **** 
 604:Src/usbd_conf.c **** /**
 605:Src/usbd_conf.c ****   * @brief  Clears a Stall condition on an endpoint of the Low Level Driver.
 606:Src/usbd_conf.c ****   * @param  pdev: Device handle
 607:Src/usbd_conf.c ****   * @param  ep_addr: Endpoint number
 608:Src/usbd_conf.c ****   * @retval USBD status
 609:Src/usbd_conf.c ****   */
 610:Src/usbd_conf.c **** USBD_StatusTypeDef USBD_LL_ClearStallEP(USBD_HandleTypeDef *pdev, uint8_t ep_addr)
 611:Src/usbd_conf.c **** {
 612:Src/usbd_conf.c ****   HAL_StatusTypeDef hal_status = HAL_OK;
 613:Src/usbd_conf.c ****   USBD_StatusTypeDef usb_status = USBD_OK;
 614:Src/usbd_conf.c **** 
 615:Src/usbd_conf.c ****   hal_status = HAL_PCD_EP_ClrStall(pdev->pData, ep_addr);
 616:Src/usbd_conf.c **** 
 617:Src/usbd_conf.c ****   switch (hal_status) {
 618:Src/usbd_conf.c ****     case HAL_OK :
 619:Src/usbd_conf.c ****       usb_status = USBD_OK;
 620:Src/usbd_conf.c ****     break;
 621:Src/usbd_conf.c ****     case HAL_ERROR :
 622:Src/usbd_conf.c ****       usb_status = USBD_FAIL;
 623:Src/usbd_conf.c ****     break;
 624:Src/usbd_conf.c ****     case HAL_BUSY :
 625:Src/usbd_conf.c ****       usb_status = USBD_BUSY;
 626:Src/usbd_conf.c ****     break;
 627:Src/usbd_conf.c ****     case HAL_TIMEOUT :
 628:Src/usbd_conf.c ****       usb_status = USBD_FAIL;
 629:Src/usbd_conf.c ****     break;
 630:Src/usbd_conf.c ****     default :
 631:Src/usbd_conf.c ****       usb_status = USBD_FAIL;
 632:Src/usbd_conf.c ****     break;
 633:Src/usbd_conf.c ****   }
 634:Src/usbd_conf.c ****   return usb_status;
 635:Src/usbd_conf.c **** }
 636:Src/usbd_conf.c **** 
 637:Src/usbd_conf.c **** /**
 638:Src/usbd_conf.c ****   * @brief  Returns Stall condition.
 639:Src/usbd_conf.c ****   * @param  pdev: Device handle
 640:Src/usbd_conf.c ****   * @param  ep_addr: Endpoint number
 641:Src/usbd_conf.c ****   * @retval Stall (1: Yes, 0: No)
 642:Src/usbd_conf.c ****   */
 643:Src/usbd_conf.c **** uint8_t USBD_LL_IsStallEP(USBD_HandleTypeDef *pdev, uint8_t ep_addr)
 644:Src/usbd_conf.c **** {
 645:Src/usbd_conf.c ****   PCD_HandleTypeDef *hpcd = (PCD_HandleTypeDef*) pdev->pData;
 646:Src/usbd_conf.c **** 
 647:Src/usbd_conf.c ****   if((ep_addr & 0x80) == 0x80)
 648:Src/usbd_conf.c ****   {
 649:Src/usbd_conf.c ****     return hpcd->IN_ep[ep_addr & 0x7F].is_stall;
 650:Src/usbd_conf.c ****   }
 651:Src/usbd_conf.c ****   else
 652:Src/usbd_conf.c ****   {
 653:Src/usbd_conf.c ****     return hpcd->OUT_ep[ep_addr & 0x7F].is_stall;
 654:Src/usbd_conf.c ****   }
 655:Src/usbd_conf.c **** }
 656:Src/usbd_conf.c **** 
 657:Src/usbd_conf.c **** /**
 658:Src/usbd_conf.c ****   * @brief  Assigns a USB address to the device.
ARM GAS  /tmp/ccnGFKtF.s 			page 13


 659:Src/usbd_conf.c ****   * @param  pdev: Device handle
 660:Src/usbd_conf.c ****   * @param  dev_addr: Device address
 661:Src/usbd_conf.c ****   * @retval USBD status
 662:Src/usbd_conf.c ****   */
 663:Src/usbd_conf.c **** USBD_StatusTypeDef USBD_LL_SetUSBAddress(USBD_HandleTypeDef *pdev, uint8_t dev_addr)
 664:Src/usbd_conf.c **** {
 665:Src/usbd_conf.c ****   HAL_StatusTypeDef hal_status = HAL_OK;
 666:Src/usbd_conf.c ****   USBD_StatusTypeDef usb_status = USBD_OK;
 667:Src/usbd_conf.c **** 
 668:Src/usbd_conf.c ****   hal_status = HAL_PCD_SetAddress(pdev->pData, dev_addr);
 669:Src/usbd_conf.c **** 
 670:Src/usbd_conf.c ****   switch (hal_status) {
 671:Src/usbd_conf.c ****     case HAL_OK :
 672:Src/usbd_conf.c ****       usb_status = USBD_OK;
 673:Src/usbd_conf.c ****     break;
 674:Src/usbd_conf.c ****     case HAL_ERROR :
 675:Src/usbd_conf.c ****       usb_status = USBD_FAIL;
 676:Src/usbd_conf.c ****     break;
 677:Src/usbd_conf.c ****     case HAL_BUSY :
 678:Src/usbd_conf.c ****       usb_status = USBD_BUSY;
 679:Src/usbd_conf.c ****     break;
 680:Src/usbd_conf.c ****     case HAL_TIMEOUT :
 681:Src/usbd_conf.c ****       usb_status = USBD_FAIL;
 682:Src/usbd_conf.c ****     break;
 683:Src/usbd_conf.c ****     default :
 684:Src/usbd_conf.c ****       usb_status = USBD_FAIL;
 685:Src/usbd_conf.c ****     break;
 686:Src/usbd_conf.c ****   }
 687:Src/usbd_conf.c ****   return usb_status;
 688:Src/usbd_conf.c **** }
 689:Src/usbd_conf.c **** 
 690:Src/usbd_conf.c **** /**
 691:Src/usbd_conf.c ****   * @brief  Transmits data over an endpoint.
 692:Src/usbd_conf.c ****   * @param  pdev: Device handle
 693:Src/usbd_conf.c ****   * @param  ep_addr: Endpoint number
 694:Src/usbd_conf.c ****   * @param  pbuf: Pointer to data to be sent
 695:Src/usbd_conf.c ****   * @param  size: Data size
 696:Src/usbd_conf.c ****   * @retval USBD status
 697:Src/usbd_conf.c ****   */
 698:Src/usbd_conf.c **** USBD_StatusTypeDef USBD_LL_Transmit(USBD_HandleTypeDef *pdev, uint8_t ep_addr, uint8_t *pbuf, uint3
 699:Src/usbd_conf.c **** {
 700:Src/usbd_conf.c ****   HAL_StatusTypeDef hal_status = HAL_OK;
 701:Src/usbd_conf.c ****   USBD_StatusTypeDef usb_status = USBD_OK;
 702:Src/usbd_conf.c **** 
 703:Src/usbd_conf.c ****   hal_status = HAL_PCD_EP_Transmit(pdev->pData, ep_addr, pbuf, size);
 704:Src/usbd_conf.c **** 
 705:Src/usbd_conf.c ****   switch (hal_status) {
 706:Src/usbd_conf.c ****     case HAL_OK :
 707:Src/usbd_conf.c ****       usb_status = USBD_OK;
 708:Src/usbd_conf.c ****     break;
 709:Src/usbd_conf.c ****     case HAL_ERROR :
 710:Src/usbd_conf.c ****       usb_status = USBD_FAIL;
 711:Src/usbd_conf.c ****     break;
 712:Src/usbd_conf.c ****     case HAL_BUSY :
 713:Src/usbd_conf.c ****       usb_status = USBD_BUSY;
 714:Src/usbd_conf.c ****     break;
 715:Src/usbd_conf.c ****     case HAL_TIMEOUT :
ARM GAS  /tmp/ccnGFKtF.s 			page 14


 716:Src/usbd_conf.c ****       usb_status = USBD_FAIL;
 717:Src/usbd_conf.c ****     break;
 718:Src/usbd_conf.c ****     default :
 719:Src/usbd_conf.c ****       usb_status = USBD_FAIL;
 720:Src/usbd_conf.c ****     break;
 721:Src/usbd_conf.c ****   }
 722:Src/usbd_conf.c ****   return usb_status;
 723:Src/usbd_conf.c **** }
 724:Src/usbd_conf.c **** 
 725:Src/usbd_conf.c **** /**
 726:Src/usbd_conf.c ****   * @brief  Prepares an endpoint for reception.
 727:Src/usbd_conf.c ****   * @param  pdev: Device handle
 728:Src/usbd_conf.c ****   * @param  ep_addr: Endpoint number
 729:Src/usbd_conf.c ****   * @param  pbuf: Pointer to data to be received
 730:Src/usbd_conf.c ****   * @param  size: Data size
 731:Src/usbd_conf.c ****   * @retval USBD status
 732:Src/usbd_conf.c ****   */
 733:Src/usbd_conf.c **** USBD_StatusTypeDef USBD_LL_PrepareReceive(USBD_HandleTypeDef *pdev, uint8_t ep_addr, uint8_t *pbuf,
 734:Src/usbd_conf.c **** {
 735:Src/usbd_conf.c ****   HAL_StatusTypeDef hal_status = HAL_OK;
 736:Src/usbd_conf.c ****   USBD_StatusTypeDef usb_status = USBD_OK;
 737:Src/usbd_conf.c **** 
 738:Src/usbd_conf.c ****   hal_status = HAL_PCD_EP_Receive(pdev->pData, ep_addr, pbuf, size);
 739:Src/usbd_conf.c **** 
 740:Src/usbd_conf.c ****   switch (hal_status) {
 741:Src/usbd_conf.c ****     case HAL_OK :
 742:Src/usbd_conf.c ****       usb_status = USBD_OK;
 743:Src/usbd_conf.c ****     break;
 744:Src/usbd_conf.c ****     case HAL_ERROR :
 745:Src/usbd_conf.c ****       usb_status = USBD_FAIL;
 746:Src/usbd_conf.c ****     break;
 747:Src/usbd_conf.c ****     case HAL_BUSY :
 748:Src/usbd_conf.c ****       usb_status = USBD_BUSY;
 749:Src/usbd_conf.c ****     break;
 750:Src/usbd_conf.c ****     case HAL_TIMEOUT :
 751:Src/usbd_conf.c ****       usb_status = USBD_FAIL;
 752:Src/usbd_conf.c ****     break;
 753:Src/usbd_conf.c ****     default :
 754:Src/usbd_conf.c ****       usb_status = USBD_FAIL;
 755:Src/usbd_conf.c ****     break;
 756:Src/usbd_conf.c ****   }
 757:Src/usbd_conf.c ****   return usb_status;
 758:Src/usbd_conf.c **** }
 759:Src/usbd_conf.c **** 
 760:Src/usbd_conf.c **** /**
 761:Src/usbd_conf.c ****   * @brief  Returns the last transfered packet size.
 762:Src/usbd_conf.c ****   * @param  pdev: Device handle
 763:Src/usbd_conf.c ****   * @param  ep_addr: Endpoint number
 764:Src/usbd_conf.c ****   * @retval Recived Data Size
 765:Src/usbd_conf.c ****   */
 766:Src/usbd_conf.c **** uint32_t USBD_LL_GetRxDataSize(USBD_HandleTypeDef *pdev, uint8_t ep_addr)
 767:Src/usbd_conf.c **** {
 768:Src/usbd_conf.c ****   return HAL_PCD_EP_GetRxCount((PCD_HandleTypeDef*) pdev->pData, ep_addr);
 769:Src/usbd_conf.c **** }
 770:Src/usbd_conf.c **** 
 771:Src/usbd_conf.c **** /**
 772:Src/usbd_conf.c ****   * @brief  Send LPM message to user layer
ARM GAS  /tmp/ccnGFKtF.s 			page 15


 773:Src/usbd_conf.c ****   * @param  hpcd: PCD handle
 774:Src/usbd_conf.c ****   * @param  msg: LPM message
 775:Src/usbd_conf.c ****   * @retval None
 776:Src/usbd_conf.c ****   */
 777:Src/usbd_conf.c **** void HAL_PCDEx_LPM_Callback(PCD_HandleTypeDef *hpcd, PCD_LPM_MsgTypeDef msg)
 778:Src/usbd_conf.c **** {
 779:Src/usbd_conf.c ****   switch (msg)
 780:Src/usbd_conf.c ****   {
 781:Src/usbd_conf.c ****   case PCD_LPM_L0_ACTIVE:
 782:Src/usbd_conf.c ****     if (hpcd->Init.low_power_enable)
 783:Src/usbd_conf.c ****     {
 784:Src/usbd_conf.c ****       SystemClockConfig_Resume();
 785:Src/usbd_conf.c **** 
 786:Src/usbd_conf.c ****       /* Reset SLEEPDEEP bit of Cortex System Control Register. */
 787:Src/usbd_conf.c ****       SCB->SCR &= (uint32_t)~((uint32_t)(SCB_SCR_SLEEPDEEP_Msk | SCB_SCR_SLEEPONEXIT_Msk));
 788:Src/usbd_conf.c ****     }
 789:Src/usbd_conf.c ****     USBD_LL_Resume(hpcd->pData);
 790:Src/usbd_conf.c ****     break;
 791:Src/usbd_conf.c **** 
 792:Src/usbd_conf.c ****   case PCD_LPM_L1_ACTIVE:
 793:Src/usbd_conf.c ****     USBD_LL_Suspend(hpcd->pData);
 794:Src/usbd_conf.c **** 
 795:Src/usbd_conf.c ****     /* Enter in STOP mode. */
 796:Src/usbd_conf.c ****     if (hpcd->Init.low_power_enable)
 797:Src/usbd_conf.c ****     {
 798:Src/usbd_conf.c ****       /* Set SLEEPDEEP bit and SleepOnExit of Cortex System Control Register. */
 799:Src/usbd_conf.c ****       SCB->SCR |= (uint32_t)((uint32_t)(SCB_SCR_SLEEPDEEP_Msk | SCB_SCR_SLEEPONEXIT_Msk));
 800:Src/usbd_conf.c ****     }
 801:Src/usbd_conf.c ****     break;
 802:Src/usbd_conf.c ****   }
 803:Src/usbd_conf.c **** }
 804:Src/usbd_conf.c **** 
 805:Src/usbd_conf.c **** /**
 806:Src/usbd_conf.c ****   * @brief  Delays routine for the USB Device Library.
 807:Src/usbd_conf.c ****   * @param  Delay: Delay in ms
 808:Src/usbd_conf.c ****   * @retval None
 809:Src/usbd_conf.c ****   */
 810:Src/usbd_conf.c **** void USBD_LL_Delay(uint32_t Delay)
 811:Src/usbd_conf.c **** {
 812:Src/usbd_conf.c ****   HAL_Delay(Delay);
 813:Src/usbd_conf.c **** }
 814:Src/usbd_conf.c **** 
 815:Src/usbd_conf.c **** /**
 816:Src/usbd_conf.c ****   * @brief  Static single allocation.
 817:Src/usbd_conf.c ****   * @param  size: Size of allocated memory
 818:Src/usbd_conf.c ****   * @retval None
 819:Src/usbd_conf.c ****   */
 820:Src/usbd_conf.c **** void *USBD_static_malloc(uint32_t size)
 821:Src/usbd_conf.c **** {
 822:Src/usbd_conf.c ****   static uint32_t mem[(sizeof(USBD_CDC_HandleTypeDef)/4)+1];/* On 32-bit boundary */
 823:Src/usbd_conf.c ****   return mem;
 824:Src/usbd_conf.c **** }
 825:Src/usbd_conf.c **** 
 826:Src/usbd_conf.c **** /**
 827:Src/usbd_conf.c ****   * @brief  Dummy memory free
 828:Src/usbd_conf.c ****   * @param  p: Pointer to allocated  memory address
 829:Src/usbd_conf.c ****   * @retval None
ARM GAS  /tmp/ccnGFKtF.s 			page 16


 830:Src/usbd_conf.c ****   */
 831:Src/usbd_conf.c **** void USBD_static_free(void *p)
 832:Src/usbd_conf.c **** {
 833:Src/usbd_conf.c **** 
 834:Src/usbd_conf.c **** }
 835:Src/usbd_conf.c **** 
 836:Src/usbd_conf.c **** /* USER CODE BEGIN 5 */
 837:Src/usbd_conf.c **** /**
 838:Src/usbd_conf.c ****   * @brief  Configures system clock after wake-up from USB resume callBack:
 839:Src/usbd_conf.c ****   *         enable HSI, PLL and select PLL as system clock source.
 840:Src/usbd_conf.c ****   * @retval None
 841:Src/usbd_conf.c ****   */
 842:Src/usbd_conf.c **** static void SystemClockConfig_Resume(void)
 843:Src/usbd_conf.c **** {
  28              		.loc 1 843 1 view -0
  29              		.cfi_startproc
  30              		@ args = 0, pretend = 0, frame = 0
  31              		@ frame_needed = 0, uses_anonymous_args = 0
  32 0000 08B5     		push	{r3, lr}
  33              	.LCFI0:
  34              		.cfi_def_cfa_offset 8
  35              		.cfi_offset 3, -8
  36              		.cfi_offset 14, -4
 844:Src/usbd_conf.c ****   SystemClock_Config();
  37              		.loc 1 844 3 view .LVU1
  38 0002 FFF7FEFF 		bl	SystemClock_Config
  39              	.LVL0:
 845:Src/usbd_conf.c **** }
  40              		.loc 1 845 1 is_stmt 0 view .LVU2
  41 0006 08BD     		pop	{r3, pc}
  42              		.cfi_endproc
  43              	.LFE327:
  45              		.section	.text.HAL_PCD_MspInit,"ax",%progbits
  46              		.align	1
  47              		.global	HAL_PCD_MspInit
  48              		.syntax unified
  49              		.thumb
  50              		.thumb_func
  51              		.fpu fpv4-sp-d16
  53              	HAL_PCD_MspInit:
  54              	.LVL1:
  55              	.LFB296:
  71:Src/usbd_conf.c ****   GPIO_InitTypeDef GPIO_InitStruct = {0};
  56              		.loc 1 71 1 is_stmt 1 view -0
  57              		.cfi_startproc
  58              		@ args = 0, pretend = 0, frame = 32
  59              		@ frame_needed = 0, uses_anonymous_args = 0
  71:Src/usbd_conf.c ****   GPIO_InitTypeDef GPIO_InitStruct = {0};
  60              		.loc 1 71 1 is_stmt 0 view .LVU4
  61 0000 30B5     		push	{r4, r5, lr}
  62              	.LCFI1:
  63              		.cfi_def_cfa_offset 12
  64              		.cfi_offset 4, -12
  65              		.cfi_offset 5, -8
  66              		.cfi_offset 14, -4
  67 0002 89B0     		sub	sp, sp, #36
  68              	.LCFI2:
ARM GAS  /tmp/ccnGFKtF.s 			page 17


  69              		.cfi_def_cfa_offset 48
  72:Src/usbd_conf.c ****   if(pcdHandle->Instance==USB)
  70              		.loc 1 72 3 is_stmt 1 view .LVU5
  72:Src/usbd_conf.c ****   if(pcdHandle->Instance==USB)
  71              		.loc 1 72 20 is_stmt 0 view .LVU6
  72 0004 0023     		movs	r3, #0
  73 0006 0393     		str	r3, [sp, #12]
  74 0008 0493     		str	r3, [sp, #16]
  75 000a 0593     		str	r3, [sp, #20]
  76 000c 0693     		str	r3, [sp, #24]
  77 000e 0793     		str	r3, [sp, #28]
  73:Src/usbd_conf.c ****   {
  78              		.loc 1 73 3 is_stmt 1 view .LVU7
  73:Src/usbd_conf.c ****   {
  79              		.loc 1 73 15 is_stmt 0 view .LVU8
  80 0010 0268     		ldr	r2, [r0]
  73:Src/usbd_conf.c ****   {
  81              		.loc 1 73 5 view .LVU9
  82 0012 184B     		ldr	r3, .L7
  83 0014 9A42     		cmp	r2, r3
  84 0016 01D0     		beq	.L6
  85              	.LVL2:
  86              	.L3:
 101:Src/usbd_conf.c **** 
  87              		.loc 1 101 1 view .LVU10
  88 0018 09B0     		add	sp, sp, #36
  89              	.LCFI3:
  90              		.cfi_remember_state
  91              		.cfi_def_cfa_offset 12
  92              		@ sp needed
  93 001a 30BD     		pop	{r4, r5, pc}
  94              	.LVL3:
  95              	.L6:
  96              	.LCFI4:
  97              		.cfi_restore_state
  79:Src/usbd_conf.c ****     /**USB GPIO Configuration
  98              		.loc 1 79 5 is_stmt 1 view .LVU11
  99              	.LBB2:
  79:Src/usbd_conf.c ****     /**USB GPIO Configuration
 100              		.loc 1 79 5 view .LVU12
  79:Src/usbd_conf.c ****     /**USB GPIO Configuration
 101              		.loc 1 79 5 view .LVU13
 102 001c 164C     		ldr	r4, .L7+4
 103 001e E36C     		ldr	r3, [r4, #76]
 104 0020 43F00103 		orr	r3, r3, #1
 105 0024 E364     		str	r3, [r4, #76]
  79:Src/usbd_conf.c ****     /**USB GPIO Configuration
 106              		.loc 1 79 5 view .LVU14
 107 0026 E36C     		ldr	r3, [r4, #76]
 108 0028 03F00103 		and	r3, r3, #1
 109 002c 0193     		str	r3, [sp, #4]
  79:Src/usbd_conf.c ****     /**USB GPIO Configuration
 110              		.loc 1 79 5 view .LVU15
 111 002e 019B     		ldr	r3, [sp, #4]
 112              	.LBE2:
  79:Src/usbd_conf.c ****     /**USB GPIO Configuration
 113              		.loc 1 79 5 view .LVU16
ARM GAS  /tmp/ccnGFKtF.s 			page 18


  84:Src/usbd_conf.c ****     GPIO_InitStruct.Mode = GPIO_MODE_AF_PP;
 114              		.loc 1 84 5 view .LVU17
  84:Src/usbd_conf.c ****     GPIO_InitStruct.Mode = GPIO_MODE_AF_PP;
 115              		.loc 1 84 25 is_stmt 0 view .LVU18
 116 0030 4FF4C053 		mov	r3, #6144
 117 0034 0393     		str	r3, [sp, #12]
  85:Src/usbd_conf.c ****     GPIO_InitStruct.Pull = GPIO_NOPULL;
 118              		.loc 1 85 5 is_stmt 1 view .LVU19
  85:Src/usbd_conf.c ****     GPIO_InitStruct.Pull = GPIO_NOPULL;
 119              		.loc 1 85 26 is_stmt 0 view .LVU20
 120 0036 0223     		movs	r3, #2
 121 0038 0493     		str	r3, [sp, #16]
  86:Src/usbd_conf.c ****     GPIO_InitStruct.Speed = GPIO_SPEED_FREQ_VERY_HIGH;
 122              		.loc 1 86 5 is_stmt 1 view .LVU21
  86:Src/usbd_conf.c ****     GPIO_InitStruct.Speed = GPIO_SPEED_FREQ_VERY_HIGH;
 123              		.loc 1 86 26 is_stmt 0 view .LVU22
 124 003a 0025     		movs	r5, #0
 125 003c 0595     		str	r5, [sp, #20]
  87:Src/usbd_conf.c ****     GPIO_InitStruct.Alternate = GPIO_AF10_USB_FS;
 126              		.loc 1 87 5 is_stmt 1 view .LVU23
  87:Src/usbd_conf.c ****     GPIO_InitStruct.Alternate = GPIO_AF10_USB_FS;
 127              		.loc 1 87 27 is_stmt 0 view .LVU24
 128 003e 0323     		movs	r3, #3
 129 0040 0693     		str	r3, [sp, #24]
  88:Src/usbd_conf.c ****     HAL_GPIO_Init(GPIOA, &GPIO_InitStruct);
 130              		.loc 1 88 5 is_stmt 1 view .LVU25
  88:Src/usbd_conf.c ****     HAL_GPIO_Init(GPIOA, &GPIO_InitStruct);
 131              		.loc 1 88 31 is_stmt 0 view .LVU26
 132 0042 0A23     		movs	r3, #10
 133 0044 0793     		str	r3, [sp, #28]
  89:Src/usbd_conf.c **** 
 134              		.loc 1 89 5 is_stmt 1 view .LVU27
 135 0046 03A9     		add	r1, sp, #12
 136 0048 4FF09040 		mov	r0, #1207959552
 137              	.LVL4:
  89:Src/usbd_conf.c **** 
 138              		.loc 1 89 5 is_stmt 0 view .LVU28
 139 004c FFF7FEFF 		bl	HAL_GPIO_Init
 140              	.LVL5:
  92:Src/usbd_conf.c **** 
 141              		.loc 1 92 5 is_stmt 1 view .LVU29
 142              	.LBB3:
  92:Src/usbd_conf.c **** 
 143              		.loc 1 92 5 view .LVU30
  92:Src/usbd_conf.c **** 
 144              		.loc 1 92 5 view .LVU31
 145 0050 A36D     		ldr	r3, [r4, #88]
 146 0052 43F08063 		orr	r3, r3, #67108864
 147 0056 A365     		str	r3, [r4, #88]
  92:Src/usbd_conf.c **** 
 148              		.loc 1 92 5 view .LVU32
 149 0058 A36D     		ldr	r3, [r4, #88]
 150 005a 03F08063 		and	r3, r3, #67108864
 151 005e 0293     		str	r3, [sp, #8]
  92:Src/usbd_conf.c **** 
 152              		.loc 1 92 5 view .LVU33
 153 0060 029B     		ldr	r3, [sp, #8]
ARM GAS  /tmp/ccnGFKtF.s 			page 19


 154              	.LBE3:
  92:Src/usbd_conf.c **** 
 155              		.loc 1 92 5 view .LVU34
  95:Src/usbd_conf.c ****     HAL_NVIC_EnableIRQ(USB_IRQn);
 156              		.loc 1 95 5 view .LVU35
 157 0062 2A46     		mov	r2, r5
 158 0064 2946     		mov	r1, r5
 159 0066 4320     		movs	r0, #67
 160 0068 FFF7FEFF 		bl	HAL_NVIC_SetPriority
 161              	.LVL6:
  96:Src/usbd_conf.c ****   /* USER CODE BEGIN USB_MspInit 1 */
 162              		.loc 1 96 5 view .LVU36
 163 006c 4320     		movs	r0, #67
 164 006e FFF7FEFF 		bl	HAL_NVIC_EnableIRQ
 165              	.LVL7:
 101:Src/usbd_conf.c **** 
 166              		.loc 1 101 1 is_stmt 0 view .LVU37
 167 0072 D1E7     		b	.L3
 168              	.L8:
 169              		.align	2
 170              	.L7:
 171 0074 00680040 		.word	1073768448
 172 0078 00100240 		.word	1073876992
 173              		.cfi_endproc
 174              	.LFE296:
 176              		.section	.text.HAL_PCD_MspDeInit,"ax",%progbits
 177              		.align	1
 178              		.global	HAL_PCD_MspDeInit
 179              		.syntax unified
 180              		.thumb
 181              		.thumb_func
 182              		.fpu fpv4-sp-d16
 184              	HAL_PCD_MspDeInit:
 185              	.LVL8:
 186              	.LFB297:
 104:Src/usbd_conf.c ****   if(pcdHandle->Instance==USB)
 187              		.loc 1 104 1 is_stmt 1 view -0
 188              		.cfi_startproc
 189              		@ args = 0, pretend = 0, frame = 0
 190              		@ frame_needed = 0, uses_anonymous_args = 0
 104:Src/usbd_conf.c ****   if(pcdHandle->Instance==USB)
 191              		.loc 1 104 1 is_stmt 0 view .LVU39
 192 0000 08B5     		push	{r3, lr}
 193              	.LCFI5:
 194              		.cfi_def_cfa_offset 8
 195              		.cfi_offset 3, -8
 196              		.cfi_offset 14, -4
 105:Src/usbd_conf.c ****   {
 197              		.loc 1 105 3 is_stmt 1 view .LVU40
 105:Src/usbd_conf.c ****   {
 198              		.loc 1 105 15 is_stmt 0 view .LVU41
 199 0002 0268     		ldr	r2, [r0]
 105:Src/usbd_conf.c ****   {
 200              		.loc 1 105 5 view .LVU42
 201 0004 094B     		ldr	r3, .L13
 202 0006 9A42     		cmp	r2, r3
 203 0008 00D0     		beq	.L12
ARM GAS  /tmp/ccnGFKtF.s 			page 20


 204              	.LVL9:
 205              	.L9:
 126:Src/usbd_conf.c **** 
 206              		.loc 1 126 1 view .LVU43
 207 000a 08BD     		pop	{r3, pc}
 208              	.LVL10:
 209              	.L12:
 111:Src/usbd_conf.c **** 
 210              		.loc 1 111 5 is_stmt 1 view .LVU44
 211 000c 084A     		ldr	r2, .L13+4
 212 000e 936D     		ldr	r3, [r2, #88]
 213 0010 23F08063 		bic	r3, r3, #67108864
 214 0014 9365     		str	r3, [r2, #88]
 111:Src/usbd_conf.c **** 
 215              		.loc 1 111 32 view .LVU45
 117:Src/usbd_conf.c **** 
 216              		.loc 1 117 5 view .LVU46
 217 0016 4FF4C051 		mov	r1, #6144
 218 001a 4FF09040 		mov	r0, #1207959552
 219              	.LVL11:
 117:Src/usbd_conf.c **** 
 220              		.loc 1 117 5 is_stmt 0 view .LVU47
 221 001e FFF7FEFF 		bl	HAL_GPIO_DeInit
 222              	.LVL12:
 120:Src/usbd_conf.c **** 
 223              		.loc 1 120 5 is_stmt 1 view .LVU48
 224 0022 4320     		movs	r0, #67
 225 0024 FFF7FEFF 		bl	HAL_NVIC_DisableIRQ
 226              	.LVL13:
 126:Src/usbd_conf.c **** 
 227              		.loc 1 126 1 is_stmt 0 view .LVU49
 228 0028 EFE7     		b	.L9
 229              	.L14:
 230 002a 00BF     		.align	2
 231              	.L13:
 232 002c 00680040 		.word	1073768448
 233 0030 00100240 		.word	1073876992
 234              		.cfi_endproc
 235              	.LFE297:
 237              		.section	.text.HAL_PCD_SetupStageCallback,"ax",%progbits
 238              		.align	1
 239              		.global	HAL_PCD_SetupStageCallback
 240              		.syntax unified
 241              		.thumb
 242              		.thumb_func
 243              		.fpu fpv4-sp-d16
 245              	HAL_PCD_SetupStageCallback:
 246              	.LVL14:
 247              	.LFB298:
 138:Src/usbd_conf.c ****   USBD_LL_SetupStage((USBD_HandleTypeDef*)hpcd->pData, (uint8_t *)hpcd->Setup);
 248              		.loc 1 138 1 is_stmt 1 view -0
 249              		.cfi_startproc
 250              		@ args = 0, pretend = 0, frame = 0
 251              		@ frame_needed = 0, uses_anonymous_args = 0
 138:Src/usbd_conf.c ****   USBD_LL_SetupStage((USBD_HandleTypeDef*)hpcd->pData, (uint8_t *)hpcd->Setup);
 252              		.loc 1 138 1 is_stmt 0 view .LVU51
 253 0000 08B5     		push	{r3, lr}
ARM GAS  /tmp/ccnGFKtF.s 			page 21


 254              	.LCFI6:
 255              		.cfi_def_cfa_offset 8
 256              		.cfi_offset 3, -8
 257              		.cfi_offset 14, -4
 139:Src/usbd_conf.c **** }
 258              		.loc 1 139 3 is_stmt 1 view .LVU52
 259 0002 00F52C71 		add	r1, r0, #688
 260 0006 D0F8F002 		ldr	r0, [r0, #752]
 261              	.LVL15:
 139:Src/usbd_conf.c **** }
 262              		.loc 1 139 3 is_stmt 0 view .LVU53
 263 000a FFF7FEFF 		bl	USBD_LL_SetupStage
 264              	.LVL16:
 140:Src/usbd_conf.c **** 
 265              		.loc 1 140 1 view .LVU54
 266 000e 08BD     		pop	{r3, pc}
 267              		.cfi_endproc
 268              	.LFE298:
 270              		.section	.text.HAL_PCD_DataOutStageCallback,"ax",%progbits
 271              		.align	1
 272              		.global	HAL_PCD_DataOutStageCallback
 273              		.syntax unified
 274              		.thumb
 275              		.thumb_func
 276              		.fpu fpv4-sp-d16
 278              	HAL_PCD_DataOutStageCallback:
 279              	.LVL17:
 280              	.LFB299:
 153:Src/usbd_conf.c ****   USBD_LL_DataOutStage((USBD_HandleTypeDef*)hpcd->pData, epnum, hpcd->OUT_ep[epnum].xfer_buff);
 281              		.loc 1 153 1 is_stmt 1 view -0
 282              		.cfi_startproc
 283              		@ args = 0, pretend = 0, frame = 0
 284              		@ frame_needed = 0, uses_anonymous_args = 0
 153:Src/usbd_conf.c ****   USBD_LL_DataOutStage((USBD_HandleTypeDef*)hpcd->pData, epnum, hpcd->OUT_ep[epnum].xfer_buff);
 285              		.loc 1 153 1 is_stmt 0 view .LVU56
 286 0000 08B5     		push	{r3, lr}
 287              	.LCFI7:
 288              		.cfi_def_cfa_offset 8
 289              		.cfi_offset 3, -8
 290              		.cfi_offset 14, -4
 154:Src/usbd_conf.c **** }
 291              		.loc 1 154 3 is_stmt 1 view .LVU57
 292 0002 01EB8103 		add	r3, r1, r1, lsl #2
 293 0006 00EBC303 		add	r3, r0, r3, lsl #3
 294 000a D3F87C21 		ldr	r2, [r3, #380]
 295 000e D0F8F002 		ldr	r0, [r0, #752]
 296              	.LVL18:
 154:Src/usbd_conf.c **** }
 297              		.loc 1 154 3 is_stmt 0 view .LVU58
 298 0012 FFF7FEFF 		bl	USBD_LL_DataOutStage
 299              	.LVL19:
 155:Src/usbd_conf.c **** 
 300              		.loc 1 155 1 view .LVU59
 301 0016 08BD     		pop	{r3, pc}
 302              		.cfi_endproc
 303              	.LFE299:
 305              		.section	.text.HAL_PCD_DataInStageCallback,"ax",%progbits
ARM GAS  /tmp/ccnGFKtF.s 			page 22


 306              		.align	1
 307              		.global	HAL_PCD_DataInStageCallback
 308              		.syntax unified
 309              		.thumb
 310              		.thumb_func
 311              		.fpu fpv4-sp-d16
 313              	HAL_PCD_DataInStageCallback:
 314              	.LVL20:
 315              	.LFB300:
 168:Src/usbd_conf.c ****   USBD_LL_DataInStage((USBD_HandleTypeDef*)hpcd->pData, epnum, hpcd->IN_ep[epnum].xfer_buff);
 316              		.loc 1 168 1 is_stmt 1 view -0
 317              		.cfi_startproc
 318              		@ args = 0, pretend = 0, frame = 0
 319              		@ frame_needed = 0, uses_anonymous_args = 0
 168:Src/usbd_conf.c ****   USBD_LL_DataInStage((USBD_HandleTypeDef*)hpcd->pData, epnum, hpcd->IN_ep[epnum].xfer_buff);
 320              		.loc 1 168 1 is_stmt 0 view .LVU61
 321 0000 08B5     		push	{r3, lr}
 322              	.LCFI8:
 323              		.cfi_def_cfa_offset 8
 324              		.cfi_offset 3, -8
 325              		.cfi_offset 14, -4
 169:Src/usbd_conf.c **** }
 326              		.loc 1 169 3 is_stmt 1 view .LVU62
 327 0002 01EB8103 		add	r3, r1, r1, lsl #2
 328 0006 00EBC303 		add	r3, r0, r3, lsl #3
 329 000a DA6B     		ldr	r2, [r3, #60]
 330 000c D0F8F002 		ldr	r0, [r0, #752]
 331              	.LVL21:
 169:Src/usbd_conf.c **** }
 332              		.loc 1 169 3 is_stmt 0 view .LVU63
 333 0010 FFF7FEFF 		bl	USBD_LL_DataInStage
 334              	.LVL22:
 170:Src/usbd_conf.c **** 
 335              		.loc 1 170 1 view .LVU64
 336 0014 08BD     		pop	{r3, pc}
 337              		.cfi_endproc
 338              	.LFE300:
 340              		.section	.text.HAL_PCD_SOFCallback,"ax",%progbits
 341              		.align	1
 342              		.global	HAL_PCD_SOFCallback
 343              		.syntax unified
 344              		.thumb
 345              		.thumb_func
 346              		.fpu fpv4-sp-d16
 348              	HAL_PCD_SOFCallback:
 349              	.LVL23:
 350              	.LFB301:
 182:Src/usbd_conf.c ****   USBD_LL_SOF((USBD_HandleTypeDef*)hpcd->pData);
 351              		.loc 1 182 1 is_stmt 1 view -0
 352              		.cfi_startproc
 353              		@ args = 0, pretend = 0, frame = 0
 354              		@ frame_needed = 0, uses_anonymous_args = 0
 182:Src/usbd_conf.c ****   USBD_LL_SOF((USBD_HandleTypeDef*)hpcd->pData);
 355              		.loc 1 182 1 is_stmt 0 view .LVU66
 356 0000 08B5     		push	{r3, lr}
 357              	.LCFI9:
 358              		.cfi_def_cfa_offset 8
ARM GAS  /tmp/ccnGFKtF.s 			page 23


 359              		.cfi_offset 3, -8
 360              		.cfi_offset 14, -4
 183:Src/usbd_conf.c **** }
 361              		.loc 1 183 3 is_stmt 1 view .LVU67
 362 0002 D0F8F002 		ldr	r0, [r0, #752]
 363              	.LVL24:
 183:Src/usbd_conf.c **** }
 364              		.loc 1 183 3 is_stmt 0 view .LVU68
 365 0006 FFF7FEFF 		bl	USBD_LL_SOF
 366              	.LVL25:
 184:Src/usbd_conf.c **** 
 367              		.loc 1 184 1 view .LVU69
 368 000a 08BD     		pop	{r3, pc}
 369              		.cfi_endproc
 370              	.LFE301:
 372              		.section	.text.HAL_PCD_ResetCallback,"ax",%progbits
 373              		.align	1
 374              		.global	HAL_PCD_ResetCallback
 375              		.syntax unified
 376              		.thumb
 377              		.thumb_func
 378              		.fpu fpv4-sp-d16
 380              	HAL_PCD_ResetCallback:
 381              	.LVL26:
 382              	.LFB302:
 196:Src/usbd_conf.c ****   USBD_SpeedTypeDef speed = USBD_SPEED_FULL;
 383              		.loc 1 196 1 is_stmt 1 view -0
 384              		.cfi_startproc
 385              		@ args = 0, pretend = 0, frame = 0
 386              		@ frame_needed = 0, uses_anonymous_args = 0
 196:Src/usbd_conf.c ****   USBD_SpeedTypeDef speed = USBD_SPEED_FULL;
 387              		.loc 1 196 1 is_stmt 0 view .LVU71
 388 0000 10B5     		push	{r4, lr}
 389              	.LCFI10:
 390              		.cfi_def_cfa_offset 8
 391              		.cfi_offset 4, -8
 392              		.cfi_offset 14, -4
 393 0002 0446     		mov	r4, r0
 197:Src/usbd_conf.c **** 
 394              		.loc 1 197 3 is_stmt 1 view .LVU72
 395              	.LVL27:
 199:Src/usbd_conf.c ****   {
 396              		.loc 1 199 3 view .LVU73
 199:Src/usbd_conf.c ****   {
 397              		.loc 1 199 18 is_stmt 0 view .LVU74
 398 0004 8368     		ldr	r3, [r0, #8]
 199:Src/usbd_conf.c ****   {
 399              		.loc 1 199 6 view .LVU75
 400 0006 022B     		cmp	r3, #2
 401 0008 09D1     		bne	.L26
 402              	.LVL28:
 403              	.L24:
 204:Src/usbd_conf.c **** 
 404              		.loc 1 204 3 is_stmt 1 view .LVU76
 405 000a 0121     		movs	r1, #1
 406 000c D4F8F002 		ldr	r0, [r4, #752]
 407 0010 FFF7FEFF 		bl	USBD_LL_SetSpeed
ARM GAS  /tmp/ccnGFKtF.s 			page 24


 408              	.LVL29:
 207:Src/usbd_conf.c **** }
 409              		.loc 1 207 3 view .LVU77
 410 0014 D4F8F002 		ldr	r0, [r4, #752]
 411 0018 FFF7FEFF 		bl	USBD_LL_Reset
 412              	.LVL30:
 208:Src/usbd_conf.c **** 
 413              		.loc 1 208 1 is_stmt 0 view .LVU78
 414 001c 10BD     		pop	{r4, pc}
 415              	.LVL31:
 416              	.L26:
 201:Src/usbd_conf.c ****   }
 417              		.loc 1 201 5 is_stmt 1 view .LVU79
 418 001e FFF7FEFF 		bl	Error_Handler
 419              	.LVL32:
 201:Src/usbd_conf.c ****   }
 420              		.loc 1 201 5 is_stmt 0 view .LVU80
 421 0022 F2E7     		b	.L24
 422              		.cfi_endproc
 423              	.LFE302:
 425              		.section	.text.HAL_PCD_SuspendCallback,"ax",%progbits
 426              		.align	1
 427              		.global	HAL_PCD_SuspendCallback
 428              		.syntax unified
 429              		.thumb
 430              		.thumb_func
 431              		.fpu fpv4-sp-d16
 433              	HAL_PCD_SuspendCallback:
 434              	.LVL33:
 435              	.LFB303:
 221:Src/usbd_conf.c ****   /* Inform USB library that core enters in suspend Mode. */
 436              		.loc 1 221 1 is_stmt 1 view -0
 437              		.cfi_startproc
 438              		@ args = 0, pretend = 0, frame = 0
 439              		@ frame_needed = 0, uses_anonymous_args = 0
 221:Src/usbd_conf.c ****   /* Inform USB library that core enters in suspend Mode. */
 440              		.loc 1 221 1 is_stmt 0 view .LVU82
 441 0000 10B5     		push	{r4, lr}
 442              	.LCFI11:
 443              		.cfi_def_cfa_offset 8
 444              		.cfi_offset 4, -8
 445              		.cfi_offset 14, -4
 446 0002 0446     		mov	r4, r0
 223:Src/usbd_conf.c ****   /* Enter in STOP mode. */
 447              		.loc 1 223 3 is_stmt 1 view .LVU83
 448 0004 D0F8F002 		ldr	r0, [r0, #752]
 449              	.LVL34:
 223:Src/usbd_conf.c ****   /* Enter in STOP mode. */
 450              		.loc 1 223 3 is_stmt 0 view .LVU84
 451 0008 FFF7FEFF 		bl	USBD_LL_Suspend
 452              	.LVL35:
 226:Src/usbd_conf.c ****   {
 453              		.loc 1 226 3 is_stmt 1 view .LVU85
 226:Src/usbd_conf.c ****   {
 454              		.loc 1 226 17 is_stmt 0 view .LVU86
 455 000c A369     		ldr	r3, [r4, #24]
 226:Src/usbd_conf.c ****   {
ARM GAS  /tmp/ccnGFKtF.s 			page 25


 456              		.loc 1 226 6 view .LVU87
 457 000e 23B1     		cbz	r3, .L27
 229:Src/usbd_conf.c ****   }
 458              		.loc 1 229 5 is_stmt 1 view .LVU88
 229:Src/usbd_conf.c ****   }
 459              		.loc 1 229 14 is_stmt 0 view .LVU89
 460 0010 024A     		ldr	r2, .L30
 461 0012 1369     		ldr	r3, [r2, #16]
 462 0014 43F00603 		orr	r3, r3, #6
 463 0018 1361     		str	r3, [r2, #16]
 464              	.L27:
 232:Src/usbd_conf.c **** 
 465              		.loc 1 232 1 view .LVU90
 466 001a 10BD     		pop	{r4, pc}
 467              	.LVL36:
 468              	.L31:
 232:Src/usbd_conf.c **** 
 469              		.loc 1 232 1 view .LVU91
 470              		.align	2
 471              	.L30:
 472 001c 00ED00E0 		.word	-536810240
 473              		.cfi_endproc
 474              	.LFE303:
 476              		.section	.text.HAL_PCD_ResumeCallback,"ax",%progbits
 477              		.align	1
 478              		.global	HAL_PCD_ResumeCallback
 479              		.syntax unified
 480              		.thumb
 481              		.thumb_func
 482              		.fpu fpv4-sp-d16
 484              	HAL_PCD_ResumeCallback:
 485              	.LVL37:
 486              	.LFB304:
 245:Src/usbd_conf.c **** 
 487              		.loc 1 245 1 is_stmt 1 view -0
 488              		.cfi_startproc
 489              		@ args = 0, pretend = 0, frame = 0
 490              		@ frame_needed = 0, uses_anonymous_args = 0
 245:Src/usbd_conf.c **** 
 491              		.loc 1 245 1 is_stmt 0 view .LVU93
 492 0000 10B5     		push	{r4, lr}
 493              	.LCFI12:
 494              		.cfi_def_cfa_offset 8
 495              		.cfi_offset 4, -8
 496              		.cfi_offset 14, -4
 497 0002 0446     		mov	r4, r0
 248:Src/usbd_conf.c ****   {
 498              		.loc 1 248 3 is_stmt 1 view .LVU94
 248:Src/usbd_conf.c ****   {
 499              		.loc 1 248 17 is_stmt 0 view .LVU95
 500 0004 8369     		ldr	r3, [r0, #24]
 248:Src/usbd_conf.c ****   {
 501              		.loc 1 248 6 view .LVU96
 502 0006 23B9     		cbnz	r3, .L35
 503              	.LVL38:
 504              	.L33:
 255:Src/usbd_conf.c **** }
ARM GAS  /tmp/ccnGFKtF.s 			page 26


 505              		.loc 1 255 3 is_stmt 1 view .LVU97
 506 0008 D4F8F002 		ldr	r0, [r4, #752]
 507 000c FFF7FEFF 		bl	USBD_LL_Resume
 508              	.LVL39:
 256:Src/usbd_conf.c **** 
 509              		.loc 1 256 1 is_stmt 0 view .LVU98
 510 0010 10BD     		pop	{r4, pc}
 511              	.LVL40:
 512              	.L35:
 251:Src/usbd_conf.c ****     SystemClockConfig_Resume();
 513              		.loc 1 251 5 is_stmt 1 view .LVU99
 251:Src/usbd_conf.c ****     SystemClockConfig_Resume();
 514              		.loc 1 251 14 is_stmt 0 view .LVU100
 515 0012 044A     		ldr	r2, .L36
 516 0014 1369     		ldr	r3, [r2, #16]
 517 0016 23F00603 		bic	r3, r3, #6
 518 001a 1361     		str	r3, [r2, #16]
 252:Src/usbd_conf.c ****   }
 519              		.loc 1 252 5 is_stmt 1 view .LVU101
 520 001c FFF7FEFF 		bl	SystemClockConfig_Resume
 521              	.LVL41:
 252:Src/usbd_conf.c ****   }
 522              		.loc 1 252 5 is_stmt 0 view .LVU102
 523 0020 F2E7     		b	.L33
 524              	.L37:
 525 0022 00BF     		.align	2
 526              	.L36:
 527 0024 00ED00E0 		.word	-536810240
 528              		.cfi_endproc
 529              	.LFE304:
 531              		.section	.text.HAL_PCD_ISOOUTIncompleteCallback,"ax",%progbits
 532              		.align	1
 533              		.global	HAL_PCD_ISOOUTIncompleteCallback
 534              		.syntax unified
 535              		.thumb
 536              		.thumb_func
 537              		.fpu fpv4-sp-d16
 539              	HAL_PCD_ISOOUTIncompleteCallback:
 540              	.LVL42:
 541              	.LFB305:
 269:Src/usbd_conf.c ****   USBD_LL_IsoOUTIncomplete((USBD_HandleTypeDef*)hpcd->pData, epnum);
 542              		.loc 1 269 1 is_stmt 1 view -0
 543              		.cfi_startproc
 544              		@ args = 0, pretend = 0, frame = 0
 545              		@ frame_needed = 0, uses_anonymous_args = 0
 269:Src/usbd_conf.c ****   USBD_LL_IsoOUTIncomplete((USBD_HandleTypeDef*)hpcd->pData, epnum);
 546              		.loc 1 269 1 is_stmt 0 view .LVU104
 547 0000 08B5     		push	{r3, lr}
 548              	.LCFI13:
 549              		.cfi_def_cfa_offset 8
 550              		.cfi_offset 3, -8
 551              		.cfi_offset 14, -4
 270:Src/usbd_conf.c **** }
 552              		.loc 1 270 3 is_stmt 1 view .LVU105
 553 0002 D0F8F002 		ldr	r0, [r0, #752]
 554              	.LVL43:
 270:Src/usbd_conf.c **** }
ARM GAS  /tmp/ccnGFKtF.s 			page 27


 555              		.loc 1 270 3 is_stmt 0 view .LVU106
 556 0006 FFF7FEFF 		bl	USBD_LL_IsoOUTIncomplete
 557              	.LVL44:
 271:Src/usbd_conf.c **** 
 558              		.loc 1 271 1 view .LVU107
 559 000a 08BD     		pop	{r3, pc}
 560              		.cfi_endproc
 561              	.LFE305:
 563              		.section	.text.HAL_PCD_ISOINIncompleteCallback,"ax",%progbits
 564              		.align	1
 565              		.global	HAL_PCD_ISOINIncompleteCallback
 566              		.syntax unified
 567              		.thumb
 568              		.thumb_func
 569              		.fpu fpv4-sp-d16
 571              	HAL_PCD_ISOINIncompleteCallback:
 572              	.LVL45:
 573              	.LFB306:
 284:Src/usbd_conf.c ****   USBD_LL_IsoINIncomplete((USBD_HandleTypeDef*)hpcd->pData, epnum);
 574              		.loc 1 284 1 is_stmt 1 view -0
 575              		.cfi_startproc
 576              		@ args = 0, pretend = 0, frame = 0
 577              		@ frame_needed = 0, uses_anonymous_args = 0
 284:Src/usbd_conf.c ****   USBD_LL_IsoINIncomplete((USBD_HandleTypeDef*)hpcd->pData, epnum);
 578              		.loc 1 284 1 is_stmt 0 view .LVU109
 579 0000 08B5     		push	{r3, lr}
 580              	.LCFI14:
 581              		.cfi_def_cfa_offset 8
 582              		.cfi_offset 3, -8
 583              		.cfi_offset 14, -4
 285:Src/usbd_conf.c **** }
 584              		.loc 1 285 3 is_stmt 1 view .LVU110
 585 0002 D0F8F002 		ldr	r0, [r0, #752]
 586              	.LVL46:
 285:Src/usbd_conf.c **** }
 587              		.loc 1 285 3 is_stmt 0 view .LVU111
 588 0006 FFF7FEFF 		bl	USBD_LL_IsoINIncomplete
 589              	.LVL47:
 286:Src/usbd_conf.c **** 
 590              		.loc 1 286 1 view .LVU112
 591 000a 08BD     		pop	{r3, pc}
 592              		.cfi_endproc
 593              	.LFE306:
 595              		.section	.text.HAL_PCD_ConnectCallback,"ax",%progbits
 596              		.align	1
 597              		.global	HAL_PCD_ConnectCallback
 598              		.syntax unified
 599              		.thumb
 600              		.thumb_func
 601              		.fpu fpv4-sp-d16
 603              	HAL_PCD_ConnectCallback:
 604              	.LVL48:
 605              	.LFB307:
 298:Src/usbd_conf.c ****   USBD_LL_DevConnected((USBD_HandleTypeDef*)hpcd->pData);
 606              		.loc 1 298 1 is_stmt 1 view -0
 607              		.cfi_startproc
 608              		@ args = 0, pretend = 0, frame = 0
ARM GAS  /tmp/ccnGFKtF.s 			page 28


 609              		@ frame_needed = 0, uses_anonymous_args = 0
 298:Src/usbd_conf.c ****   USBD_LL_DevConnected((USBD_HandleTypeDef*)hpcd->pData);
 610              		.loc 1 298 1 is_stmt 0 view .LVU114
 611 0000 08B5     		push	{r3, lr}
 612              	.LCFI15:
 613              		.cfi_def_cfa_offset 8
 614              		.cfi_offset 3, -8
 615              		.cfi_offset 14, -4
 299:Src/usbd_conf.c **** }
 616              		.loc 1 299 3 is_stmt 1 view .LVU115
 617 0002 D0F8F002 		ldr	r0, [r0, #752]
 618              	.LVL49:
 299:Src/usbd_conf.c **** }
 619              		.loc 1 299 3 is_stmt 0 view .LVU116
 620 0006 FFF7FEFF 		bl	USBD_LL_DevConnected
 621              	.LVL50:
 300:Src/usbd_conf.c **** 
 622              		.loc 1 300 1 view .LVU117
 623 000a 08BD     		pop	{r3, pc}
 624              		.cfi_endproc
 625              	.LFE307:
 627              		.section	.text.HAL_PCD_DisconnectCallback,"ax",%progbits
 628              		.align	1
 629              		.global	HAL_PCD_DisconnectCallback
 630              		.syntax unified
 631              		.thumb
 632              		.thumb_func
 633              		.fpu fpv4-sp-d16
 635              	HAL_PCD_DisconnectCallback:
 636              	.LVL51:
 637              	.LFB308:
 312:Src/usbd_conf.c ****   USBD_LL_DevDisconnected((USBD_HandleTypeDef*)hpcd->pData);
 638              		.loc 1 312 1 is_stmt 1 view -0
 639              		.cfi_startproc
 640              		@ args = 0, pretend = 0, frame = 0
 641              		@ frame_needed = 0, uses_anonymous_args = 0
 312:Src/usbd_conf.c ****   USBD_LL_DevDisconnected((USBD_HandleTypeDef*)hpcd->pData);
 642              		.loc 1 312 1 is_stmt 0 view .LVU119
 643 0000 08B5     		push	{r3, lr}
 644              	.LCFI16:
 645              		.cfi_def_cfa_offset 8
 646              		.cfi_offset 3, -8
 647              		.cfi_offset 14, -4
 313:Src/usbd_conf.c **** }
 648              		.loc 1 313 3 is_stmt 1 view .LVU120
 649 0002 D0F8F002 		ldr	r0, [r0, #752]
 650              	.LVL52:
 313:Src/usbd_conf.c **** }
 651              		.loc 1 313 3 is_stmt 0 view .LVU121
 652 0006 FFF7FEFF 		bl	USBD_LL_DevDisconnected
 653              	.LVL53:
 314:Src/usbd_conf.c **** 
 654              		.loc 1 314 1 view .LVU122
 655 000a 08BD     		pop	{r3, pc}
 656              		.cfi_endproc
 657              	.LFE308:
 659              		.section	.text.USBD_LL_Init,"ax",%progbits
ARM GAS  /tmp/ccnGFKtF.s 			page 29


 660              		.align	1
 661              		.global	USBD_LL_Init
 662              		.syntax unified
 663              		.thumb
 664              		.thumb_func
 665              		.fpu fpv4-sp-d16
 667              	USBD_LL_Init:
 668              	.LVL54:
 669              	.LFB309:
 326:Src/usbd_conf.c ****   /* Init USB Ip. */
 670              		.loc 1 326 1 is_stmt 1 view -0
 671              		.cfi_startproc
 672              		@ args = 0, pretend = 0, frame = 0
 673              		@ frame_needed = 0, uses_anonymous_args = 0
 326:Src/usbd_conf.c ****   /* Init USB Ip. */
 674              		.loc 1 326 1 is_stmt 0 view .LVU124
 675 0000 10B5     		push	{r4, lr}
 676              	.LCFI17:
 677              		.cfi_def_cfa_offset 8
 678              		.cfi_offset 4, -8
 679              		.cfi_offset 14, -4
 680 0002 0446     		mov	r4, r0
 329:Src/usbd_conf.c ****   /* Link the driver to the stack. */
 681              		.loc 1 329 3 is_stmt 1 view .LVU125
 682 0004 FFF7FEFF 		bl	HAL_PWREx_EnableVddUSB
 683              	.LVL55:
 331:Src/usbd_conf.c ****   pdev->pData = &hpcd_USB_FS;
 684              		.loc 1 331 3 view .LVU126
 331:Src/usbd_conf.c ****   pdev->pData = &hpcd_USB_FS;
 685              		.loc 1 331 21 is_stmt 0 view .LVU127
 686 0008 1E48     		ldr	r0, .L50
 687 000a C0F8F042 		str	r4, [r0, #752]
 332:Src/usbd_conf.c **** 
 688              		.loc 1 332 3 is_stmt 1 view .LVU128
 332:Src/usbd_conf.c **** 
 689              		.loc 1 332 15 is_stmt 0 view .LVU129
 690 000e C4F8C402 		str	r0, [r4, #708]
 334:Src/usbd_conf.c ****   hpcd_USB_FS.Init.dev_endpoints = 8;
 691              		.loc 1 334 3 is_stmt 1 view .LVU130
 334:Src/usbd_conf.c ****   hpcd_USB_FS.Init.dev_endpoints = 8;
 692              		.loc 1 334 24 is_stmt 0 view .LVU131
 693 0012 1D4B     		ldr	r3, .L50+4
 694 0014 0360     		str	r3, [r0]
 335:Src/usbd_conf.c ****   hpcd_USB_FS.Init.speed = PCD_SPEED_FULL;
 695              		.loc 1 335 3 is_stmt 1 view .LVU132
 335:Src/usbd_conf.c ****   hpcd_USB_FS.Init.speed = PCD_SPEED_FULL;
 696              		.loc 1 335 34 is_stmt 0 view .LVU133
 697 0016 0823     		movs	r3, #8
 698 0018 4360     		str	r3, [r0, #4]
 336:Src/usbd_conf.c ****   hpcd_USB_FS.Init.phy_itface = PCD_PHY_EMBEDDED;
 699              		.loc 1 336 3 is_stmt 1 view .LVU134
 336:Src/usbd_conf.c ****   hpcd_USB_FS.Init.phy_itface = PCD_PHY_EMBEDDED;
 700              		.loc 1 336 26 is_stmt 0 view .LVU135
 701 001a 0223     		movs	r3, #2
 702 001c 8360     		str	r3, [r0, #8]
 337:Src/usbd_conf.c ****   hpcd_USB_FS.Init.Sof_enable = DISABLE;
 703              		.loc 1 337 3 is_stmt 1 view .LVU136
ARM GAS  /tmp/ccnGFKtF.s 			page 30


 337:Src/usbd_conf.c ****   hpcd_USB_FS.Init.Sof_enable = DISABLE;
 704              		.loc 1 337 31 is_stmt 0 view .LVU137
 705 001e 0361     		str	r3, [r0, #16]
 338:Src/usbd_conf.c ****   hpcd_USB_FS.Init.low_power_enable = DISABLE;
 706              		.loc 1 338 3 is_stmt 1 view .LVU138
 338:Src/usbd_conf.c ****   hpcd_USB_FS.Init.low_power_enable = DISABLE;
 707              		.loc 1 338 31 is_stmt 0 view .LVU139
 708 0020 0023     		movs	r3, #0
 709 0022 4361     		str	r3, [r0, #20]
 339:Src/usbd_conf.c ****   hpcd_USB_FS.Init.lpm_enable = DISABLE;
 710              		.loc 1 339 3 is_stmt 1 view .LVU140
 339:Src/usbd_conf.c ****   hpcd_USB_FS.Init.lpm_enable = DISABLE;
 711              		.loc 1 339 37 is_stmt 0 view .LVU141
 712 0024 8361     		str	r3, [r0, #24]
 340:Src/usbd_conf.c ****   hpcd_USB_FS.Init.battery_charging_enable = DISABLE;
 713              		.loc 1 340 3 is_stmt 1 view .LVU142
 340:Src/usbd_conf.c ****   hpcd_USB_FS.Init.battery_charging_enable = DISABLE;
 714              		.loc 1 340 31 is_stmt 0 view .LVU143
 715 0026 C361     		str	r3, [r0, #28]
 341:Src/usbd_conf.c ****   if (HAL_PCD_Init(&hpcd_USB_FS) != HAL_OK)
 716              		.loc 1 341 3 is_stmt 1 view .LVU144
 341:Src/usbd_conf.c ****   if (HAL_PCD_Init(&hpcd_USB_FS) != HAL_OK)
 717              		.loc 1 341 44 is_stmt 0 view .LVU145
 718 0028 0362     		str	r3, [r0, #32]
 342:Src/usbd_conf.c ****   {
 719              		.loc 1 342 3 is_stmt 1 view .LVU146
 342:Src/usbd_conf.c ****   {
 720              		.loc 1 342 7 is_stmt 0 view .LVU147
 721 002a FFF7FEFF 		bl	HAL_PCD_Init
 722              	.LVL56:
 342:Src/usbd_conf.c ****   {
 723              		.loc 1 342 6 view .LVU148
 724 002e 30BB     		cbnz	r0, .L49
 725              	.L47:
 363:Src/usbd_conf.c ****   HAL_PCDEx_PMAConfig((PCD_HandleTypeDef*)pdev->pData , 0x80 , PCD_SNG_BUF, 0x58);
 726              		.loc 1 363 3 is_stmt 1 view .LVU149
 727 0030 1823     		movs	r3, #24
 728 0032 0022     		movs	r2, #0
 729 0034 1146     		mov	r1, r2
 730 0036 D4F8C402 		ldr	r0, [r4, #708]
 731 003a FFF7FEFF 		bl	HAL_PCDEx_PMAConfig
 732              	.LVL57:
 364:Src/usbd_conf.c ****   /* USER CODE END EndPoint_Configuration */
 733              		.loc 1 364 3 view .LVU150
 734 003e 5823     		movs	r3, #88
 735 0040 0022     		movs	r2, #0
 736 0042 8021     		movs	r1, #128
 737 0044 D4F8C402 		ldr	r0, [r4, #708]
 738 0048 FFF7FEFF 		bl	HAL_PCDEx_PMAConfig
 739              	.LVL58:
 367:Src/usbd_conf.c ****   HAL_PCDEx_PMAConfig((PCD_HandleTypeDef*)pdev->pData , 0x01 , PCD_SNG_BUF, 0x110);
 740              		.loc 1 367 3 view .LVU151
 741 004c C023     		movs	r3, #192
 742 004e 0022     		movs	r2, #0
 743 0050 8121     		movs	r1, #129
 744 0052 D4F8C402 		ldr	r0, [r4, #708]
 745 0056 FFF7FEFF 		bl	HAL_PCDEx_PMAConfig
ARM GAS  /tmp/ccnGFKtF.s 			page 31


 746              	.LVL59:
 368:Src/usbd_conf.c ****   HAL_PCDEx_PMAConfig((PCD_HandleTypeDef*)pdev->pData , 0x82 , PCD_SNG_BUF, 0x100);
 747              		.loc 1 368 3 view .LVU152
 748 005a 4FF48873 		mov	r3, #272
 749 005e 0022     		movs	r2, #0
 750 0060 0121     		movs	r1, #1
 751 0062 D4F8C402 		ldr	r0, [r4, #708]
 752 0066 FFF7FEFF 		bl	HAL_PCDEx_PMAConfig
 753              	.LVL60:
 369:Src/usbd_conf.c ****   /* USER CODE END EndPoint_Configuration_CDC */
 754              		.loc 1 369 3 view .LVU153
 755 006a 4FF48073 		mov	r3, #256
 756 006e 0022     		movs	r2, #0
 757 0070 8221     		movs	r1, #130
 758 0072 D4F8C402 		ldr	r0, [r4, #708]
 759 0076 FFF7FEFF 		bl	HAL_PCDEx_PMAConfig
 760              	.LVL61:
 371:Src/usbd_conf.c **** }
 761              		.loc 1 371 3 view .LVU154
 372:Src/usbd_conf.c **** 
 762              		.loc 1 372 1 is_stmt 0 view .LVU155
 763 007a 0020     		movs	r0, #0
 764 007c 10BD     		pop	{r4, pc}
 765              	.LVL62:
 766              	.L49:
 344:Src/usbd_conf.c ****   }
 767              		.loc 1 344 5 is_stmt 1 view .LVU156
 768 007e FFF7FEFF 		bl	Error_Handler
 769              	.LVL63:
 770 0082 D5E7     		b	.L47
 771              	.L51:
 772              		.align	2
 773              	.L50:
 774 0084 00000000 		.word	hpcd_USB_FS
 775 0088 00680040 		.word	1073768448
 776              		.cfi_endproc
 777              	.LFE309:
 779              		.section	.text.USBD_LL_DeInit,"ax",%progbits
 780              		.align	1
 781              		.global	USBD_LL_DeInit
 782              		.syntax unified
 783              		.thumb
 784              		.thumb_func
 785              		.fpu fpv4-sp-d16
 787              	USBD_LL_DeInit:
 788              	.LVL64:
 789              	.LFB310:
 380:Src/usbd_conf.c ****   HAL_StatusTypeDef hal_status = HAL_OK;
 790              		.loc 1 380 1 view -0
 791              		.cfi_startproc
 792              		@ args = 0, pretend = 0, frame = 0
 793              		@ frame_needed = 0, uses_anonymous_args = 0
 380:Src/usbd_conf.c ****   HAL_StatusTypeDef hal_status = HAL_OK;
 794              		.loc 1 380 1 is_stmt 0 view .LVU158
 795 0000 08B5     		push	{r3, lr}
 796              	.LCFI18:
 797              		.cfi_def_cfa_offset 8
ARM GAS  /tmp/ccnGFKtF.s 			page 32


 798              		.cfi_offset 3, -8
 799              		.cfi_offset 14, -4
 381:Src/usbd_conf.c ****   USBD_StatusTypeDef usb_status = USBD_OK;
 800              		.loc 1 381 3 is_stmt 1 view .LVU159
 801              	.LVL65:
 382:Src/usbd_conf.c **** 
 802              		.loc 1 382 3 view .LVU160
 384:Src/usbd_conf.c **** 
 803              		.loc 1 384 3 view .LVU161
 384:Src/usbd_conf.c **** 
 804              		.loc 1 384 16 is_stmt 0 view .LVU162
 805 0002 D0F8C402 		ldr	r0, [r0, #708]
 806              	.LVL66:
 384:Src/usbd_conf.c **** 
 807              		.loc 1 384 16 view .LVU163
 808 0006 FFF7FEFF 		bl	HAL_PCD_DeInit
 809              	.LVL67:
 386:Src/usbd_conf.c ****     case HAL_OK :
 810              		.loc 1 386 3 is_stmt 1 view .LVU164
 811 000a 0328     		cmp	r0, #3
 812 000c 05D8     		bhi	.L58
 813 000e DFE800F0 		tbb	[pc, r0]
 814              	.L55:
 815 0012 03       		.byte	(.L53-.L55)/2
 816 0013 04       		.byte	(.L58-.L55)/2
 817 0014 02       		.byte	(.L56-.L55)/2
 818 0015 03       		.byte	(.L53-.L55)/2
 819              		.p2align 1
 820              	.L56:
 394:Src/usbd_conf.c ****     break;
 821              		.loc 1 394 7 view .LVU165
 822              	.LVL68:
 395:Src/usbd_conf.c ****     case HAL_TIMEOUT :
 823              		.loc 1 395 5 view .LVU166
 394:Src/usbd_conf.c ****     break;
 824              		.loc 1 394 18 is_stmt 0 view .LVU167
 825 0016 0120     		movs	r0, #1
 826              	.LVL69:
 827              	.L53:
 403:Src/usbd_conf.c **** }
 828              		.loc 1 403 3 is_stmt 1 view .LVU168
 404:Src/usbd_conf.c **** 
 829              		.loc 1 404 1 is_stmt 0 view .LVU169
 830 0018 08BD     		pop	{r3, pc}
 831              	.LVL70:
 832              	.L58:
 391:Src/usbd_conf.c ****     break;
 833              		.loc 1 391 18 view .LVU170
 834 001a 0320     		movs	r0, #3
 835              	.LVL71:
 391:Src/usbd_conf.c ****     break;
 836              		.loc 1 391 18 view .LVU171
 837 001c FCE7     		b	.L53
 838              		.cfi_endproc
 839              	.LFE310:
 841              		.section	.text.USBD_LL_Start,"ax",%progbits
 842              		.align	1
ARM GAS  /tmp/ccnGFKtF.s 			page 33


 843              		.global	USBD_LL_Start
 844              		.syntax unified
 845              		.thumb
 846              		.thumb_func
 847              		.fpu fpv4-sp-d16
 849              	USBD_LL_Start:
 850              	.LVL72:
 851              	.LFB311:
 412:Src/usbd_conf.c ****   HAL_StatusTypeDef hal_status = HAL_OK;
 852              		.loc 1 412 1 is_stmt 1 view -0
 853              		.cfi_startproc
 854              		@ args = 0, pretend = 0, frame = 0
 855              		@ frame_needed = 0, uses_anonymous_args = 0
 412:Src/usbd_conf.c ****   HAL_StatusTypeDef hal_status = HAL_OK;
 856              		.loc 1 412 1 is_stmt 0 view .LVU173
 857 0000 08B5     		push	{r3, lr}
 858              	.LCFI19:
 859              		.cfi_def_cfa_offset 8
 860              		.cfi_offset 3, -8
 861              		.cfi_offset 14, -4
 413:Src/usbd_conf.c ****   USBD_StatusTypeDef usb_status = USBD_OK;
 862              		.loc 1 413 3 is_stmt 1 view .LVU174
 863              	.LVL73:
 414:Src/usbd_conf.c **** 
 864              		.loc 1 414 3 view .LVU175
 416:Src/usbd_conf.c **** 
 865              		.loc 1 416 3 view .LVU176
 416:Src/usbd_conf.c **** 
 866              		.loc 1 416 16 is_stmt 0 view .LVU177
 867 0002 D0F8C402 		ldr	r0, [r0, #708]
 868              	.LVL74:
 416:Src/usbd_conf.c **** 
 869              		.loc 1 416 16 view .LVU178
 870 0006 FFF7FEFF 		bl	HAL_PCD_Start
 871              	.LVL75:
 418:Src/usbd_conf.c ****     case HAL_OK :
 872              		.loc 1 418 3 is_stmt 1 view .LVU179
 873 000a 0328     		cmp	r0, #3
 874 000c 05D8     		bhi	.L66
 875 000e DFE800F0 		tbb	[pc, r0]
 876              	.L63:
 877 0012 03       		.byte	(.L61-.L63)/2
 878 0013 04       		.byte	(.L66-.L63)/2
 879 0014 02       		.byte	(.L64-.L63)/2
 880 0015 03       		.byte	(.L61-.L63)/2
 881              		.p2align 1
 882              	.L64:
 426:Src/usbd_conf.c ****     break;
 883              		.loc 1 426 7 view .LVU180
 884              	.LVL76:
 427:Src/usbd_conf.c ****     case HAL_TIMEOUT :
 885              		.loc 1 427 5 view .LVU181
 426:Src/usbd_conf.c ****     break;
 886              		.loc 1 426 18 is_stmt 0 view .LVU182
 887 0016 0120     		movs	r0, #1
 888              	.LVL77:
 889              	.L61:
ARM GAS  /tmp/ccnGFKtF.s 			page 34


 435:Src/usbd_conf.c **** }
 890              		.loc 1 435 3 is_stmt 1 view .LVU183
 436:Src/usbd_conf.c **** 
 891              		.loc 1 436 1 is_stmt 0 view .LVU184
 892 0018 08BD     		pop	{r3, pc}
 893              	.LVL78:
 894              	.L66:
 423:Src/usbd_conf.c ****     break;
 895              		.loc 1 423 18 view .LVU185
 896 001a 0320     		movs	r0, #3
 897              	.LVL79:
 423:Src/usbd_conf.c ****     break;
 898              		.loc 1 423 18 view .LVU186
 899 001c FCE7     		b	.L61
 900              		.cfi_endproc
 901              	.LFE311:
 903              		.section	.text.USBD_LL_Stop,"ax",%progbits
 904              		.align	1
 905              		.global	USBD_LL_Stop
 906              		.syntax unified
 907              		.thumb
 908              		.thumb_func
 909              		.fpu fpv4-sp-d16
 911              	USBD_LL_Stop:
 912              	.LVL80:
 913              	.LFB312:
 444:Src/usbd_conf.c ****   HAL_StatusTypeDef hal_status = HAL_OK;
 914              		.loc 1 444 1 is_stmt 1 view -0
 915              		.cfi_startproc
 916              		@ args = 0, pretend = 0, frame = 0
 917              		@ frame_needed = 0, uses_anonymous_args = 0
 444:Src/usbd_conf.c ****   HAL_StatusTypeDef hal_status = HAL_OK;
 918              		.loc 1 444 1 is_stmt 0 view .LVU188
 919 0000 08B5     		push	{r3, lr}
 920              	.LCFI20:
 921              		.cfi_def_cfa_offset 8
 922              		.cfi_offset 3, -8
 923              		.cfi_offset 14, -4
 445:Src/usbd_conf.c ****   USBD_StatusTypeDef usb_status = USBD_OK;
 924              		.loc 1 445 3 is_stmt 1 view .LVU189
 925              	.LVL81:
 446:Src/usbd_conf.c **** 
 926              		.loc 1 446 3 view .LVU190
 448:Src/usbd_conf.c **** 
 927              		.loc 1 448 3 view .LVU191
 448:Src/usbd_conf.c **** 
 928              		.loc 1 448 16 is_stmt 0 view .LVU192
 929 0002 D0F8C402 		ldr	r0, [r0, #708]
 930              	.LVL82:
 448:Src/usbd_conf.c **** 
 931              		.loc 1 448 16 view .LVU193
 932 0006 FFF7FEFF 		bl	HAL_PCD_Stop
 933              	.LVL83:
 450:Src/usbd_conf.c ****     case HAL_OK :
 934              		.loc 1 450 3 is_stmt 1 view .LVU194
 935 000a 0328     		cmp	r0, #3
 936 000c 05D8     		bhi	.L74
ARM GAS  /tmp/ccnGFKtF.s 			page 35


 937 000e DFE800F0 		tbb	[pc, r0]
 938              	.L71:
 939 0012 03       		.byte	(.L69-.L71)/2
 940 0013 04       		.byte	(.L74-.L71)/2
 941 0014 02       		.byte	(.L72-.L71)/2
 942 0015 03       		.byte	(.L69-.L71)/2
 943              		.p2align 1
 944              	.L72:
 458:Src/usbd_conf.c ****     break;
 945              		.loc 1 458 7 view .LVU195
 946              	.LVL84:
 459:Src/usbd_conf.c ****     case HAL_TIMEOUT :
 947              		.loc 1 459 5 view .LVU196
 458:Src/usbd_conf.c ****     break;
 948              		.loc 1 458 18 is_stmt 0 view .LVU197
 949 0016 0120     		movs	r0, #1
 950              	.LVL85:
 951              	.L69:
 467:Src/usbd_conf.c **** }
 952              		.loc 1 467 3 is_stmt 1 view .LVU198
 468:Src/usbd_conf.c **** 
 953              		.loc 1 468 1 is_stmt 0 view .LVU199
 954 0018 08BD     		pop	{r3, pc}
 955              	.LVL86:
 956              	.L74:
 455:Src/usbd_conf.c ****     break;
 957              		.loc 1 455 18 view .LVU200
 958 001a 0320     		movs	r0, #3
 959              	.LVL87:
 455:Src/usbd_conf.c ****     break;
 960              		.loc 1 455 18 view .LVU201
 961 001c FCE7     		b	.L69
 962              		.cfi_endproc
 963              	.LFE312:
 965              		.section	.text.USBD_LL_OpenEP,"ax",%progbits
 966              		.align	1
 967              		.global	USBD_LL_OpenEP
 968              		.syntax unified
 969              		.thumb
 970              		.thumb_func
 971              		.fpu fpv4-sp-d16
 973              	USBD_LL_OpenEP:
 974              	.LVL88:
 975              	.LFB313:
 479:Src/usbd_conf.c ****   HAL_StatusTypeDef hal_status = HAL_OK;
 976              		.loc 1 479 1 is_stmt 1 view -0
 977              		.cfi_startproc
 978              		@ args = 0, pretend = 0, frame = 0
 979              		@ frame_needed = 0, uses_anonymous_args = 0
 479:Src/usbd_conf.c ****   HAL_StatusTypeDef hal_status = HAL_OK;
 980              		.loc 1 479 1 is_stmt 0 view .LVU203
 981 0000 10B5     		push	{r4, lr}
 982              	.LCFI21:
 983              		.cfi_def_cfa_offset 8
 984              		.cfi_offset 4, -8
 985              		.cfi_offset 14, -4
 986 0002 1446     		mov	r4, r2
ARM GAS  /tmp/ccnGFKtF.s 			page 36


 987 0004 1A46     		mov	r2, r3
 988              	.LVL89:
 480:Src/usbd_conf.c ****   USBD_StatusTypeDef usb_status = USBD_OK;
 989              		.loc 1 480 3 is_stmt 1 view .LVU204
 481:Src/usbd_conf.c **** 
 990              		.loc 1 481 3 view .LVU205
 483:Src/usbd_conf.c **** 
 991              		.loc 1 483 3 view .LVU206
 483:Src/usbd_conf.c **** 
 992              		.loc 1 483 16 is_stmt 0 view .LVU207
 993 0006 2346     		mov	r3, r4
 994              	.LVL90:
 483:Src/usbd_conf.c **** 
 995              		.loc 1 483 16 view .LVU208
 996 0008 D0F8C402 		ldr	r0, [r0, #708]
 997              	.LVL91:
 483:Src/usbd_conf.c **** 
 998              		.loc 1 483 16 view .LVU209
 999 000c FFF7FEFF 		bl	HAL_PCD_EP_Open
 1000              	.LVL92:
 485:Src/usbd_conf.c ****     case HAL_OK :
 1001              		.loc 1 485 3 is_stmt 1 view .LVU210
 1002 0010 0328     		cmp	r0, #3
 1003 0012 05D8     		bhi	.L82
 1004 0014 DFE800F0 		tbb	[pc, r0]
 1005              	.L79:
 1006 0018 03       		.byte	(.L77-.L79)/2
 1007 0019 04       		.byte	(.L82-.L79)/2
 1008 001a 02       		.byte	(.L80-.L79)/2
 1009 001b 03       		.byte	(.L77-.L79)/2
 1010              		.p2align 1
 1011              	.L80:
 493:Src/usbd_conf.c ****     break;
 1012              		.loc 1 493 7 view .LVU211
 1013              	.LVL93:
 494:Src/usbd_conf.c ****     case HAL_TIMEOUT :
 1014              		.loc 1 494 5 view .LVU212
 493:Src/usbd_conf.c ****     break;
 1015              		.loc 1 493 18 is_stmt 0 view .LVU213
 1016 001c 0120     		movs	r0, #1
 1017              	.LVL94:
 1018              	.L77:
 502:Src/usbd_conf.c **** }
 1019              		.loc 1 502 3 is_stmt 1 view .LVU214
 503:Src/usbd_conf.c **** 
 1020              		.loc 1 503 1 is_stmt 0 view .LVU215
 1021 001e 10BD     		pop	{r4, pc}
 1022              	.LVL95:
 1023              	.L82:
 490:Src/usbd_conf.c ****     break;
 1024              		.loc 1 490 18 view .LVU216
 1025 0020 0320     		movs	r0, #3
 1026              	.LVL96:
 490:Src/usbd_conf.c ****     break;
 1027              		.loc 1 490 18 view .LVU217
 1028 0022 FCE7     		b	.L77
 1029              		.cfi_endproc
ARM GAS  /tmp/ccnGFKtF.s 			page 37


 1030              	.LFE313:
 1032              		.section	.text.USBD_LL_CloseEP,"ax",%progbits
 1033              		.align	1
 1034              		.global	USBD_LL_CloseEP
 1035              		.syntax unified
 1036              		.thumb
 1037              		.thumb_func
 1038              		.fpu fpv4-sp-d16
 1040              	USBD_LL_CloseEP:
 1041              	.LVL97:
 1042              	.LFB314:
 512:Src/usbd_conf.c ****   HAL_StatusTypeDef hal_status = HAL_OK;
 1043              		.loc 1 512 1 is_stmt 1 view -0
 1044              		.cfi_startproc
 1045              		@ args = 0, pretend = 0, frame = 0
 1046              		@ frame_needed = 0, uses_anonymous_args = 0
 512:Src/usbd_conf.c ****   HAL_StatusTypeDef hal_status = HAL_OK;
 1047              		.loc 1 512 1 is_stmt 0 view .LVU219
 1048 0000 08B5     		push	{r3, lr}
 1049              	.LCFI22:
 1050              		.cfi_def_cfa_offset 8
 1051              		.cfi_offset 3, -8
 1052              		.cfi_offset 14, -4
 513:Src/usbd_conf.c ****   USBD_StatusTypeDef usb_status = USBD_OK;
 1053              		.loc 1 513 3 is_stmt 1 view .LVU220
 1054              	.LVL98:
 514:Src/usbd_conf.c **** 
 1055              		.loc 1 514 3 view .LVU221
 516:Src/usbd_conf.c **** 
 1056              		.loc 1 516 3 view .LVU222
 516:Src/usbd_conf.c **** 
 1057              		.loc 1 516 16 is_stmt 0 view .LVU223
 1058 0002 D0F8C402 		ldr	r0, [r0, #708]
 1059              	.LVL99:
 516:Src/usbd_conf.c **** 
 1060              		.loc 1 516 16 view .LVU224
 1061 0006 FFF7FEFF 		bl	HAL_PCD_EP_Close
 1062              	.LVL100:
 518:Src/usbd_conf.c ****     case HAL_OK :
 1063              		.loc 1 518 3 is_stmt 1 view .LVU225
 1064 000a 0328     		cmp	r0, #3
 1065 000c 05D8     		bhi	.L90
 1066 000e DFE800F0 		tbb	[pc, r0]
 1067              	.L87:
 1068 0012 03       		.byte	(.L85-.L87)/2
 1069 0013 04       		.byte	(.L90-.L87)/2
 1070 0014 02       		.byte	(.L88-.L87)/2
 1071 0015 03       		.byte	(.L85-.L87)/2
 1072              		.p2align 1
 1073              	.L88:
 526:Src/usbd_conf.c ****     break;
 1074              		.loc 1 526 7 view .LVU226
 1075              	.LVL101:
 527:Src/usbd_conf.c ****     case HAL_TIMEOUT :
 1076              		.loc 1 527 5 view .LVU227
 526:Src/usbd_conf.c ****     break;
 1077              		.loc 1 526 18 is_stmt 0 view .LVU228
ARM GAS  /tmp/ccnGFKtF.s 			page 38


 1078 0016 0120     		movs	r0, #1
 1079              	.LVL102:
 1080              	.L85:
 535:Src/usbd_conf.c **** }
 1081              		.loc 1 535 3 is_stmt 1 view .LVU229
 536:Src/usbd_conf.c **** 
 1082              		.loc 1 536 1 is_stmt 0 view .LVU230
 1083 0018 08BD     		pop	{r3, pc}
 1084              	.LVL103:
 1085              	.L90:
 523:Src/usbd_conf.c ****     break;
 1086              		.loc 1 523 18 view .LVU231
 1087 001a 0320     		movs	r0, #3
 1088              	.LVL104:
 523:Src/usbd_conf.c ****     break;
 1089              		.loc 1 523 18 view .LVU232
 1090 001c FCE7     		b	.L85
 1091              		.cfi_endproc
 1092              	.LFE314:
 1094              		.section	.text.USBD_LL_FlushEP,"ax",%progbits
 1095              		.align	1
 1096              		.global	USBD_LL_FlushEP
 1097              		.syntax unified
 1098              		.thumb
 1099              		.thumb_func
 1100              		.fpu fpv4-sp-d16
 1102              	USBD_LL_FlushEP:
 1103              	.LVL105:
 1104              	.LFB315:
 545:Src/usbd_conf.c ****   HAL_StatusTypeDef hal_status = HAL_OK;
 1105              		.loc 1 545 1 is_stmt 1 view -0
 1106              		.cfi_startproc
 1107              		@ args = 0, pretend = 0, frame = 0
 1108              		@ frame_needed = 0, uses_anonymous_args = 0
 545:Src/usbd_conf.c ****   HAL_StatusTypeDef hal_status = HAL_OK;
 1109              		.loc 1 545 1 is_stmt 0 view .LVU234
 1110 0000 08B5     		push	{r3, lr}
 1111              	.LCFI23:
 1112              		.cfi_def_cfa_offset 8
 1113              		.cfi_offset 3, -8
 1114              		.cfi_offset 14, -4
 546:Src/usbd_conf.c ****   USBD_StatusTypeDef usb_status = USBD_OK;
 1115              		.loc 1 546 3 is_stmt 1 view .LVU235
 1116              	.LVL106:
 547:Src/usbd_conf.c **** 
 1117              		.loc 1 547 3 view .LVU236
 549:Src/usbd_conf.c **** 
 1118              		.loc 1 549 3 view .LVU237
 549:Src/usbd_conf.c **** 
 1119              		.loc 1 549 16 is_stmt 0 view .LVU238
 1120 0002 D0F8C402 		ldr	r0, [r0, #708]
 1121              	.LVL107:
 549:Src/usbd_conf.c **** 
 1122              		.loc 1 549 16 view .LVU239
 1123 0006 FFF7FEFF 		bl	HAL_PCD_EP_Flush
 1124              	.LVL108:
 551:Src/usbd_conf.c ****     case HAL_OK :
ARM GAS  /tmp/ccnGFKtF.s 			page 39


 1125              		.loc 1 551 3 is_stmt 1 view .LVU240
 1126 000a 0328     		cmp	r0, #3
 1127 000c 05D8     		bhi	.L98
 1128 000e DFE800F0 		tbb	[pc, r0]
 1129              	.L95:
 1130 0012 03       		.byte	(.L93-.L95)/2
 1131 0013 04       		.byte	(.L98-.L95)/2
 1132 0014 02       		.byte	(.L96-.L95)/2
 1133 0015 03       		.byte	(.L93-.L95)/2
 1134              		.p2align 1
 1135              	.L96:
 559:Src/usbd_conf.c ****     break;
 1136              		.loc 1 559 7 view .LVU241
 1137              	.LVL109:
 560:Src/usbd_conf.c ****     case HAL_TIMEOUT :
 1138              		.loc 1 560 5 view .LVU242
 559:Src/usbd_conf.c ****     break;
 1139              		.loc 1 559 18 is_stmt 0 view .LVU243
 1140 0016 0120     		movs	r0, #1
 1141              	.LVL110:
 1142              	.L93:
 568:Src/usbd_conf.c **** }
 1143              		.loc 1 568 3 is_stmt 1 view .LVU244
 569:Src/usbd_conf.c **** 
 1144              		.loc 1 569 1 is_stmt 0 view .LVU245
 1145 0018 08BD     		pop	{r3, pc}
 1146              	.LVL111:
 1147              	.L98:
 556:Src/usbd_conf.c ****     break;
 1148              		.loc 1 556 18 view .LVU246
 1149 001a 0320     		movs	r0, #3
 1150              	.LVL112:
 556:Src/usbd_conf.c ****     break;
 1151              		.loc 1 556 18 view .LVU247
 1152 001c FCE7     		b	.L93
 1153              		.cfi_endproc
 1154              	.LFE315:
 1156              		.section	.text.USBD_LL_StallEP,"ax",%progbits
 1157              		.align	1
 1158              		.global	USBD_LL_StallEP
 1159              		.syntax unified
 1160              		.thumb
 1161              		.thumb_func
 1162              		.fpu fpv4-sp-d16
 1164              	USBD_LL_StallEP:
 1165              	.LVL113:
 1166              	.LFB316:
 578:Src/usbd_conf.c ****   HAL_StatusTypeDef hal_status = HAL_OK;
 1167              		.loc 1 578 1 is_stmt 1 view -0
 1168              		.cfi_startproc
 1169              		@ args = 0, pretend = 0, frame = 0
 1170              		@ frame_needed = 0, uses_anonymous_args = 0
 578:Src/usbd_conf.c ****   HAL_StatusTypeDef hal_status = HAL_OK;
 1171              		.loc 1 578 1 is_stmt 0 view .LVU249
 1172 0000 08B5     		push	{r3, lr}
 1173              	.LCFI24:
 1174              		.cfi_def_cfa_offset 8
ARM GAS  /tmp/ccnGFKtF.s 			page 40


 1175              		.cfi_offset 3, -8
 1176              		.cfi_offset 14, -4
 579:Src/usbd_conf.c ****   USBD_StatusTypeDef usb_status = USBD_OK;
 1177              		.loc 1 579 3 is_stmt 1 view .LVU250
 1178              	.LVL114:
 580:Src/usbd_conf.c **** 
 1179              		.loc 1 580 3 view .LVU251
 582:Src/usbd_conf.c **** 
 1180              		.loc 1 582 3 view .LVU252
 582:Src/usbd_conf.c **** 
 1181              		.loc 1 582 16 is_stmt 0 view .LVU253
 1182 0002 D0F8C402 		ldr	r0, [r0, #708]
 1183              	.LVL115:
 582:Src/usbd_conf.c **** 
 1184              		.loc 1 582 16 view .LVU254
 1185 0006 FFF7FEFF 		bl	HAL_PCD_EP_SetStall
 1186              	.LVL116:
 584:Src/usbd_conf.c ****     case HAL_OK :
 1187              		.loc 1 584 3 is_stmt 1 view .LVU255
 1188 000a 0328     		cmp	r0, #3
 1189 000c 05D8     		bhi	.L106
 1190 000e DFE800F0 		tbb	[pc, r0]
 1191              	.L103:
 1192 0012 03       		.byte	(.L101-.L103)/2
 1193 0013 04       		.byte	(.L106-.L103)/2
 1194 0014 02       		.byte	(.L104-.L103)/2
 1195 0015 03       		.byte	(.L101-.L103)/2
 1196              		.p2align 1
 1197              	.L104:
 592:Src/usbd_conf.c ****     break;
 1198              		.loc 1 592 7 view .LVU256
 1199              	.LVL117:
 593:Src/usbd_conf.c ****     case HAL_TIMEOUT :
 1200              		.loc 1 593 5 view .LVU257
 592:Src/usbd_conf.c ****     break;
 1201              		.loc 1 592 18 is_stmt 0 view .LVU258
 1202 0016 0120     		movs	r0, #1
 1203              	.LVL118:
 1204              	.L101:
 601:Src/usbd_conf.c **** }
 1205              		.loc 1 601 3 is_stmt 1 view .LVU259
 602:Src/usbd_conf.c **** 
 1206              		.loc 1 602 1 is_stmt 0 view .LVU260
 1207 0018 08BD     		pop	{r3, pc}
 1208              	.LVL119:
 1209              	.L106:
 589:Src/usbd_conf.c ****     break;
 1210              		.loc 1 589 18 view .LVU261
 1211 001a 0320     		movs	r0, #3
 1212              	.LVL120:
 589:Src/usbd_conf.c ****     break;
 1213              		.loc 1 589 18 view .LVU262
 1214 001c FCE7     		b	.L101
 1215              		.cfi_endproc
 1216              	.LFE316:
 1218              		.section	.text.USBD_LL_ClearStallEP,"ax",%progbits
 1219              		.align	1
ARM GAS  /tmp/ccnGFKtF.s 			page 41


 1220              		.global	USBD_LL_ClearStallEP
 1221              		.syntax unified
 1222              		.thumb
 1223              		.thumb_func
 1224              		.fpu fpv4-sp-d16
 1226              	USBD_LL_ClearStallEP:
 1227              	.LVL121:
 1228              	.LFB317:
 611:Src/usbd_conf.c ****   HAL_StatusTypeDef hal_status = HAL_OK;
 1229              		.loc 1 611 1 is_stmt 1 view -0
 1230              		.cfi_startproc
 1231              		@ args = 0, pretend = 0, frame = 0
 1232              		@ frame_needed = 0, uses_anonymous_args = 0
 611:Src/usbd_conf.c ****   HAL_StatusTypeDef hal_status = HAL_OK;
 1233              		.loc 1 611 1 is_stmt 0 view .LVU264
 1234 0000 08B5     		push	{r3, lr}
 1235              	.LCFI25:
 1236              		.cfi_def_cfa_offset 8
 1237              		.cfi_offset 3, -8
 1238              		.cfi_offset 14, -4
 612:Src/usbd_conf.c ****   USBD_StatusTypeDef usb_status = USBD_OK;
 1239              		.loc 1 612 3 is_stmt 1 view .LVU265
 1240              	.LVL122:
 613:Src/usbd_conf.c **** 
 1241              		.loc 1 613 3 view .LVU266
 615:Src/usbd_conf.c **** 
 1242              		.loc 1 615 3 view .LVU267
 615:Src/usbd_conf.c **** 
 1243              		.loc 1 615 16 is_stmt 0 view .LVU268
 1244 0002 D0F8C402 		ldr	r0, [r0, #708]
 1245              	.LVL123:
 615:Src/usbd_conf.c **** 
 1246              		.loc 1 615 16 view .LVU269
 1247 0006 FFF7FEFF 		bl	HAL_PCD_EP_ClrStall
 1248              	.LVL124:
 617:Src/usbd_conf.c ****     case HAL_OK :
 1249              		.loc 1 617 3 is_stmt 1 view .LVU270
 1250 000a 0328     		cmp	r0, #3
 1251 000c 05D8     		bhi	.L114
 1252 000e DFE800F0 		tbb	[pc, r0]
 1253              	.L111:
 1254 0012 03       		.byte	(.L109-.L111)/2
 1255 0013 04       		.byte	(.L114-.L111)/2
 1256 0014 02       		.byte	(.L112-.L111)/2
 1257 0015 03       		.byte	(.L109-.L111)/2
 1258              		.p2align 1
 1259              	.L112:
 625:Src/usbd_conf.c ****     break;
 1260              		.loc 1 625 7 view .LVU271
 1261              	.LVL125:
 626:Src/usbd_conf.c ****     case HAL_TIMEOUT :
 1262              		.loc 1 626 5 view .LVU272
 625:Src/usbd_conf.c ****     break;
 1263              		.loc 1 625 18 is_stmt 0 view .LVU273
 1264 0016 0120     		movs	r0, #1
 1265              	.LVL126:
 1266              	.L109:
ARM GAS  /tmp/ccnGFKtF.s 			page 42


 634:Src/usbd_conf.c **** }
 1267              		.loc 1 634 3 is_stmt 1 view .LVU274
 635:Src/usbd_conf.c **** 
 1268              		.loc 1 635 1 is_stmt 0 view .LVU275
 1269 0018 08BD     		pop	{r3, pc}
 1270              	.LVL127:
 1271              	.L114:
 622:Src/usbd_conf.c ****     break;
 1272              		.loc 1 622 18 view .LVU276
 1273 001a 0320     		movs	r0, #3
 1274              	.LVL128:
 622:Src/usbd_conf.c ****     break;
 1275              		.loc 1 622 18 view .LVU277
 1276 001c FCE7     		b	.L109
 1277              		.cfi_endproc
 1278              	.LFE317:
 1280              		.section	.text.USBD_LL_IsStallEP,"ax",%progbits
 1281              		.align	1
 1282              		.global	USBD_LL_IsStallEP
 1283              		.syntax unified
 1284              		.thumb
 1285              		.thumb_func
 1286              		.fpu fpv4-sp-d16
 1288              	USBD_LL_IsStallEP:
 1289              	.LVL129:
 1290              	.LFB318:
 644:Src/usbd_conf.c ****   PCD_HandleTypeDef *hpcd = (PCD_HandleTypeDef*) pdev->pData;
 1291              		.loc 1 644 1 is_stmt 1 view -0
 1292              		.cfi_startproc
 1293              		@ args = 0, pretend = 0, frame = 0
 1294              		@ frame_needed = 0, uses_anonymous_args = 0
 1295              		@ link register save eliminated.
 645:Src/usbd_conf.c **** 
 1296              		.loc 1 645 3 view .LVU279
 645:Src/usbd_conf.c **** 
 1297              		.loc 1 645 22 is_stmt 0 view .LVU280
 1298 0000 D0F8C432 		ldr	r3, [r0, #708]
 1299              	.LVL130:
 647:Src/usbd_conf.c ****   {
 1300              		.loc 1 647 3 is_stmt 1 view .LVU281
 647:Src/usbd_conf.c ****   {
 1301              		.loc 1 647 5 is_stmt 0 view .LVU282
 1302 0004 11F0800F 		tst	r1, #128
 1303 0008 08D1     		bne	.L119
 653:Src/usbd_conf.c ****   }
 1304              		.loc 1 653 5 is_stmt 1 view .LVU283
 653:Src/usbd_conf.c ****   }
 1305              		.loc 1 653 33 is_stmt 0 view .LVU284
 1306 000a 01F07F01 		and	r1, r1, #127
 1307              	.LVL131:
 653:Src/usbd_conf.c ****   }
 1308              		.loc 1 653 40 view .LVU285
 1309 000e 01EB8101 		add	r1, r1, r1, lsl #2
 1310 0012 03EBC101 		add	r1, r3, r1, lsl #3
 1311 0016 91F86A01 		ldrb	r0, [r1, #362]	@ zero_extendqisi2
 1312              	.LVL132:
 655:Src/usbd_conf.c **** 
ARM GAS  /tmp/ccnGFKtF.s 			page 43


 1313              		.loc 1 655 1 view .LVU286
 1314 001a 7047     		bx	lr
 1315              	.LVL133:
 1316              	.L119:
 649:Src/usbd_conf.c ****   }
 1317              		.loc 1 649 5 is_stmt 1 view .LVU287
 649:Src/usbd_conf.c ****   }
 1318              		.loc 1 649 32 is_stmt 0 view .LVU288
 1319 001c 01F07F01 		and	r1, r1, #127
 1320              	.LVL134:
 649:Src/usbd_conf.c ****   }
 1321              		.loc 1 649 39 view .LVU289
 1322 0020 0131     		adds	r1, r1, #1
 1323 0022 01EB8101 		add	r1, r1, r1, lsl #2
 1324 0026 03EBC101 		add	r1, r3, r1, lsl #3
 1325 002a 8878     		ldrb	r0, [r1, #2]	@ zero_extendqisi2
 1326              	.LVL135:
 649:Src/usbd_conf.c ****   }
 1327              		.loc 1 649 39 view .LVU290
 1328 002c 7047     		bx	lr
 1329              		.cfi_endproc
 1330              	.LFE318:
 1332              		.section	.text.USBD_LL_SetUSBAddress,"ax",%progbits
 1333              		.align	1
 1334              		.global	USBD_LL_SetUSBAddress
 1335              		.syntax unified
 1336              		.thumb
 1337              		.thumb_func
 1338              		.fpu fpv4-sp-d16
 1340              	USBD_LL_SetUSBAddress:
 1341              	.LVL136:
 1342              	.LFB319:
 664:Src/usbd_conf.c ****   HAL_StatusTypeDef hal_status = HAL_OK;
 1343              		.loc 1 664 1 is_stmt 1 view -0
 1344              		.cfi_startproc
 1345              		@ args = 0, pretend = 0, frame = 0
 1346              		@ frame_needed = 0, uses_anonymous_args = 0
 664:Src/usbd_conf.c ****   HAL_StatusTypeDef hal_status = HAL_OK;
 1347              		.loc 1 664 1 is_stmt 0 view .LVU292
 1348 0000 08B5     		push	{r3, lr}
 1349              	.LCFI26:
 1350              		.cfi_def_cfa_offset 8
 1351              		.cfi_offset 3, -8
 1352              		.cfi_offset 14, -4
 665:Src/usbd_conf.c ****   USBD_StatusTypeDef usb_status = USBD_OK;
 1353              		.loc 1 665 3 is_stmt 1 view .LVU293
 1354              	.LVL137:
 666:Src/usbd_conf.c **** 
 1355              		.loc 1 666 3 view .LVU294
 668:Src/usbd_conf.c **** 
 1356              		.loc 1 668 3 view .LVU295
 668:Src/usbd_conf.c **** 
 1357              		.loc 1 668 16 is_stmt 0 view .LVU296
 1358 0002 D0F8C402 		ldr	r0, [r0, #708]
 1359              	.LVL138:
 668:Src/usbd_conf.c **** 
 1360              		.loc 1 668 16 view .LVU297
ARM GAS  /tmp/ccnGFKtF.s 			page 44


 1361 0006 FFF7FEFF 		bl	HAL_PCD_SetAddress
 1362              	.LVL139:
 670:Src/usbd_conf.c ****     case HAL_OK :
 1363              		.loc 1 670 3 is_stmt 1 view .LVU298
 1364 000a 0328     		cmp	r0, #3
 1365 000c 05D8     		bhi	.L126
 1366 000e DFE800F0 		tbb	[pc, r0]
 1367              	.L123:
 1368 0012 03       		.byte	(.L121-.L123)/2
 1369 0013 04       		.byte	(.L126-.L123)/2
 1370 0014 02       		.byte	(.L124-.L123)/2
 1371 0015 03       		.byte	(.L121-.L123)/2
 1372              		.p2align 1
 1373              	.L124:
 678:Src/usbd_conf.c ****     break;
 1374              		.loc 1 678 7 view .LVU299
 1375              	.LVL140:
 679:Src/usbd_conf.c ****     case HAL_TIMEOUT :
 1376              		.loc 1 679 5 view .LVU300
 678:Src/usbd_conf.c ****     break;
 1377              		.loc 1 678 18 is_stmt 0 view .LVU301
 1378 0016 0120     		movs	r0, #1
 1379              	.LVL141:
 1380              	.L121:
 687:Src/usbd_conf.c **** }
 1381              		.loc 1 687 3 is_stmt 1 view .LVU302
 688:Src/usbd_conf.c **** 
 1382              		.loc 1 688 1 is_stmt 0 view .LVU303
 1383 0018 08BD     		pop	{r3, pc}
 1384              	.LVL142:
 1385              	.L126:
 675:Src/usbd_conf.c ****     break;
 1386              		.loc 1 675 18 view .LVU304
 1387 001a 0320     		movs	r0, #3
 1388              	.LVL143:
 675:Src/usbd_conf.c ****     break;
 1389              		.loc 1 675 18 view .LVU305
 1390 001c FCE7     		b	.L121
 1391              		.cfi_endproc
 1392              	.LFE319:
 1394              		.section	.text.USBD_LL_Transmit,"ax",%progbits
 1395              		.align	1
 1396              		.global	USBD_LL_Transmit
 1397              		.syntax unified
 1398              		.thumb
 1399              		.thumb_func
 1400              		.fpu fpv4-sp-d16
 1402              	USBD_LL_Transmit:
 1403              	.LVL144:
 1404              	.LFB320:
 699:Src/usbd_conf.c ****   HAL_StatusTypeDef hal_status = HAL_OK;
 1405              		.loc 1 699 1 is_stmt 1 view -0
 1406              		.cfi_startproc
 1407              		@ args = 0, pretend = 0, frame = 0
 1408              		@ frame_needed = 0, uses_anonymous_args = 0
 699:Src/usbd_conf.c ****   HAL_StatusTypeDef hal_status = HAL_OK;
 1409              		.loc 1 699 1 is_stmt 0 view .LVU307
ARM GAS  /tmp/ccnGFKtF.s 			page 45


 1410 0000 08B5     		push	{r3, lr}
 1411              	.LCFI27:
 1412              		.cfi_def_cfa_offset 8
 1413              		.cfi_offset 3, -8
 1414              		.cfi_offset 14, -4
 700:Src/usbd_conf.c ****   USBD_StatusTypeDef usb_status = USBD_OK;
 1415              		.loc 1 700 3 is_stmt 1 view .LVU308
 1416              	.LVL145:
 701:Src/usbd_conf.c **** 
 1417              		.loc 1 701 3 view .LVU309
 703:Src/usbd_conf.c **** 
 1418              		.loc 1 703 3 view .LVU310
 703:Src/usbd_conf.c **** 
 1419              		.loc 1 703 16 is_stmt 0 view .LVU311
 1420 0002 D0F8C402 		ldr	r0, [r0, #708]
 1421              	.LVL146:
 703:Src/usbd_conf.c **** 
 1422              		.loc 1 703 16 view .LVU312
 1423 0006 FFF7FEFF 		bl	HAL_PCD_EP_Transmit
 1424              	.LVL147:
 705:Src/usbd_conf.c ****     case HAL_OK :
 1425              		.loc 1 705 3 is_stmt 1 view .LVU313
 1426 000a 0328     		cmp	r0, #3
 1427 000c 05D8     		bhi	.L134
 1428 000e DFE800F0 		tbb	[pc, r0]
 1429              	.L131:
 1430 0012 03       		.byte	(.L129-.L131)/2
 1431 0013 04       		.byte	(.L134-.L131)/2
 1432 0014 02       		.byte	(.L132-.L131)/2
 1433 0015 03       		.byte	(.L129-.L131)/2
 1434              		.p2align 1
 1435              	.L132:
 713:Src/usbd_conf.c ****     break;
 1436              		.loc 1 713 7 view .LVU314
 1437              	.LVL148:
 714:Src/usbd_conf.c ****     case HAL_TIMEOUT :
 1438              		.loc 1 714 5 view .LVU315
 713:Src/usbd_conf.c ****     break;
 1439              		.loc 1 713 18 is_stmt 0 view .LVU316
 1440 0016 0120     		movs	r0, #1
 1441              	.LVL149:
 1442              	.L129:
 722:Src/usbd_conf.c **** }
 1443              		.loc 1 722 3 is_stmt 1 view .LVU317
 723:Src/usbd_conf.c **** 
 1444              		.loc 1 723 1 is_stmt 0 view .LVU318
 1445 0018 08BD     		pop	{r3, pc}
 1446              	.LVL150:
 1447              	.L134:
 710:Src/usbd_conf.c ****     break;
 1448              		.loc 1 710 18 view .LVU319
 1449 001a 0320     		movs	r0, #3
 1450              	.LVL151:
 710:Src/usbd_conf.c ****     break;
 1451              		.loc 1 710 18 view .LVU320
 1452 001c FCE7     		b	.L129
 1453              		.cfi_endproc
ARM GAS  /tmp/ccnGFKtF.s 			page 46


 1454              	.LFE320:
 1456              		.section	.text.USBD_LL_PrepareReceive,"ax",%progbits
 1457              		.align	1
 1458              		.global	USBD_LL_PrepareReceive
 1459              		.syntax unified
 1460              		.thumb
 1461              		.thumb_func
 1462              		.fpu fpv4-sp-d16
 1464              	USBD_LL_PrepareReceive:
 1465              	.LVL152:
 1466              	.LFB321:
 734:Src/usbd_conf.c ****   HAL_StatusTypeDef hal_status = HAL_OK;
 1467              		.loc 1 734 1 is_stmt 1 view -0
 1468              		.cfi_startproc
 1469              		@ args = 0, pretend = 0, frame = 0
 1470              		@ frame_needed = 0, uses_anonymous_args = 0
 734:Src/usbd_conf.c ****   HAL_StatusTypeDef hal_status = HAL_OK;
 1471              		.loc 1 734 1 is_stmt 0 view .LVU322
 1472 0000 08B5     		push	{r3, lr}
 1473              	.LCFI28:
 1474              		.cfi_def_cfa_offset 8
 1475              		.cfi_offset 3, -8
 1476              		.cfi_offset 14, -4
 735:Src/usbd_conf.c ****   USBD_StatusTypeDef usb_status = USBD_OK;
 1477              		.loc 1 735 3 is_stmt 1 view .LVU323
 1478              	.LVL153:
 736:Src/usbd_conf.c **** 
 1479              		.loc 1 736 3 view .LVU324
 738:Src/usbd_conf.c **** 
 1480              		.loc 1 738 3 view .LVU325
 738:Src/usbd_conf.c **** 
 1481              		.loc 1 738 16 is_stmt 0 view .LVU326
 1482 0002 D0F8C402 		ldr	r0, [r0, #708]
 1483              	.LVL154:
 738:Src/usbd_conf.c **** 
 1484              		.loc 1 738 16 view .LVU327
 1485 0006 FFF7FEFF 		bl	HAL_PCD_EP_Receive
 1486              	.LVL155:
 740:Src/usbd_conf.c ****     case HAL_OK :
 1487              		.loc 1 740 3 is_stmt 1 view .LVU328
 1488 000a 0328     		cmp	r0, #3
 1489 000c 05D8     		bhi	.L142
 1490 000e DFE800F0 		tbb	[pc, r0]
 1491              	.L139:
 1492 0012 03       		.byte	(.L137-.L139)/2
 1493 0013 04       		.byte	(.L142-.L139)/2
 1494 0014 02       		.byte	(.L140-.L139)/2
 1495 0015 03       		.byte	(.L137-.L139)/2
 1496              		.p2align 1
 1497              	.L140:
 748:Src/usbd_conf.c ****     break;
 1498              		.loc 1 748 7 view .LVU329
 1499              	.LVL156:
 749:Src/usbd_conf.c ****     case HAL_TIMEOUT :
 1500              		.loc 1 749 5 view .LVU330
 748:Src/usbd_conf.c ****     break;
 1501              		.loc 1 748 18 is_stmt 0 view .LVU331
ARM GAS  /tmp/ccnGFKtF.s 			page 47


 1502 0016 0120     		movs	r0, #1
 1503              	.LVL157:
 1504              	.L137:
 757:Src/usbd_conf.c **** }
 1505              		.loc 1 757 3 is_stmt 1 view .LVU332
 758:Src/usbd_conf.c **** 
 1506              		.loc 1 758 1 is_stmt 0 view .LVU333
 1507 0018 08BD     		pop	{r3, pc}
 1508              	.LVL158:
 1509              	.L142:
 745:Src/usbd_conf.c ****     break;
 1510              		.loc 1 745 18 view .LVU334
 1511 001a 0320     		movs	r0, #3
 1512              	.LVL159:
 745:Src/usbd_conf.c ****     break;
 1513              		.loc 1 745 18 view .LVU335
 1514 001c FCE7     		b	.L137
 1515              		.cfi_endproc
 1516              	.LFE321:
 1518              		.section	.text.USBD_LL_GetRxDataSize,"ax",%progbits
 1519              		.align	1
 1520              		.global	USBD_LL_GetRxDataSize
 1521              		.syntax unified
 1522              		.thumb
 1523              		.thumb_func
 1524              		.fpu fpv4-sp-d16
 1526              	USBD_LL_GetRxDataSize:
 1527              	.LVL160:
 1528              	.LFB322:
 767:Src/usbd_conf.c ****   return HAL_PCD_EP_GetRxCount((PCD_HandleTypeDef*) pdev->pData, ep_addr);
 1529              		.loc 1 767 1 is_stmt 1 view -0
 1530              		.cfi_startproc
 1531              		@ args = 0, pretend = 0, frame = 0
 1532              		@ frame_needed = 0, uses_anonymous_args = 0
 767:Src/usbd_conf.c ****   return HAL_PCD_EP_GetRxCount((PCD_HandleTypeDef*) pdev->pData, ep_addr);
 1533              		.loc 1 767 1 is_stmt 0 view .LVU337
 1534 0000 08B5     		push	{r3, lr}
 1535              	.LCFI29:
 1536              		.cfi_def_cfa_offset 8
 1537              		.cfi_offset 3, -8
 1538              		.cfi_offset 14, -4
 768:Src/usbd_conf.c **** }
 1539              		.loc 1 768 3 is_stmt 1 view .LVU338
 768:Src/usbd_conf.c **** }
 1540              		.loc 1 768 10 is_stmt 0 view .LVU339
 1541 0002 D0F8C402 		ldr	r0, [r0, #708]
 1542              	.LVL161:
 768:Src/usbd_conf.c **** }
 1543              		.loc 1 768 10 view .LVU340
 1544 0006 FFF7FEFF 		bl	HAL_PCD_EP_GetRxCount
 1545              	.LVL162:
 769:Src/usbd_conf.c **** 
 1546              		.loc 1 769 1 view .LVU341
 1547 000a 08BD     		pop	{r3, pc}
 1548              		.cfi_endproc
 1549              	.LFE322:
 1551              		.section	.text.HAL_PCDEx_LPM_Callback,"ax",%progbits
ARM GAS  /tmp/ccnGFKtF.s 			page 48


 1552              		.align	1
 1553              		.global	HAL_PCDEx_LPM_Callback
 1554              		.syntax unified
 1555              		.thumb
 1556              		.thumb_func
 1557              		.fpu fpv4-sp-d16
 1559              	HAL_PCDEx_LPM_Callback:
 1560              	.LVL163:
 1561              	.LFB323:
 778:Src/usbd_conf.c ****   switch (msg)
 1562              		.loc 1 778 1 is_stmt 1 view -0
 1563              		.cfi_startproc
 1564              		@ args = 0, pretend = 0, frame = 0
 1565              		@ frame_needed = 0, uses_anonymous_args = 0
 778:Src/usbd_conf.c ****   switch (msg)
 1566              		.loc 1 778 1 is_stmt 0 view .LVU343
 1567 0000 10B5     		push	{r4, lr}
 1568              	.LCFI30:
 1569              		.cfi_def_cfa_offset 8
 1570              		.cfi_offset 4, -8
 1571              		.cfi_offset 14, -4
 1572 0002 0446     		mov	r4, r0
 779:Src/usbd_conf.c ****   {
 1573              		.loc 1 779 3 is_stmt 1 view .LVU344
 1574 0004 11B1     		cbz	r1, .L147
 1575 0006 0129     		cmp	r1, #1
 1576 0008 0FD0     		beq	.L148
 1577              	.LVL164:
 1578              	.L146:
 803:Src/usbd_conf.c **** 
 1579              		.loc 1 803 1 is_stmt 0 view .LVU345
 1580 000a 10BD     		pop	{r4, pc}
 1581              	.LVL165:
 1582              	.L147:
 782:Src/usbd_conf.c ****     {
 1583              		.loc 1 782 5 is_stmt 1 view .LVU346
 782:Src/usbd_conf.c ****     {
 1584              		.loc 1 782 19 is_stmt 0 view .LVU347
 1585 000c 8369     		ldr	r3, [r0, #24]
 782:Src/usbd_conf.c ****     {
 1586              		.loc 1 782 8 view .LVU348
 1587 000e 23B9     		cbnz	r3, .L152
 1588              	.LVL166:
 1589              	.L150:
 789:Src/usbd_conf.c ****     break;
 1590              		.loc 1 789 5 is_stmt 1 view .LVU349
 1591 0010 D4F8F002 		ldr	r0, [r4, #752]
 1592 0014 FFF7FEFF 		bl	USBD_LL_Resume
 1593              	.LVL167:
 790:Src/usbd_conf.c **** 
 1594              		.loc 1 790 5 view .LVU350
 1595 0018 F7E7     		b	.L146
 1596              	.LVL168:
 1597              	.L152:
 784:Src/usbd_conf.c **** 
 1598              		.loc 1 784 7 view .LVU351
 1599 001a FFF7FEFF 		bl	SystemClockConfig_Resume
ARM GAS  /tmp/ccnGFKtF.s 			page 49


 1600              	.LVL169:
 787:Src/usbd_conf.c ****     }
 1601              		.loc 1 787 7 view .LVU352
 787:Src/usbd_conf.c ****     }
 1602              		.loc 1 787 16 is_stmt 0 view .LVU353
 1603 001e 094A     		ldr	r2, .L153
 1604 0020 1369     		ldr	r3, [r2, #16]
 1605 0022 23F00603 		bic	r3, r3, #6
 1606 0026 1361     		str	r3, [r2, #16]
 1607 0028 F2E7     		b	.L150
 1608              	.LVL170:
 1609              	.L148:
 793:Src/usbd_conf.c **** 
 1610              		.loc 1 793 5 is_stmt 1 view .LVU354
 1611 002a D0F8F002 		ldr	r0, [r0, #752]
 1612              	.LVL171:
 793:Src/usbd_conf.c **** 
 1613              		.loc 1 793 5 is_stmt 0 view .LVU355
 1614 002e FFF7FEFF 		bl	USBD_LL_Suspend
 1615              	.LVL172:
 796:Src/usbd_conf.c ****     {
 1616              		.loc 1 796 5 is_stmt 1 view .LVU356
 796:Src/usbd_conf.c ****     {
 1617              		.loc 1 796 19 is_stmt 0 view .LVU357
 1618 0032 A369     		ldr	r3, [r4, #24]
 796:Src/usbd_conf.c ****     {
 1619              		.loc 1 796 8 view .LVU358
 1620 0034 002B     		cmp	r3, #0
 1621 0036 E8D0     		beq	.L146
 799:Src/usbd_conf.c ****     }
 1622              		.loc 1 799 7 is_stmt 1 view .LVU359
 799:Src/usbd_conf.c ****     }
 1623              		.loc 1 799 16 is_stmt 0 view .LVU360
 1624 0038 024A     		ldr	r2, .L153
 1625 003a 1369     		ldr	r3, [r2, #16]
 1626 003c 43F00603 		orr	r3, r3, #6
 1627 0040 1361     		str	r3, [r2, #16]
 803:Src/usbd_conf.c **** 
 1628              		.loc 1 803 1 view .LVU361
 1629 0042 E2E7     		b	.L146
 1630              	.L154:
 1631              		.align	2
 1632              	.L153:
 1633 0044 00ED00E0 		.word	-536810240
 1634              		.cfi_endproc
 1635              	.LFE323:
 1637              		.section	.text.USBD_LL_Delay,"ax",%progbits
 1638              		.align	1
 1639              		.global	USBD_LL_Delay
 1640              		.syntax unified
 1641              		.thumb
 1642              		.thumb_func
 1643              		.fpu fpv4-sp-d16
 1645              	USBD_LL_Delay:
 1646              	.LVL173:
 1647              	.LFB324:
 811:Src/usbd_conf.c ****   HAL_Delay(Delay);
ARM GAS  /tmp/ccnGFKtF.s 			page 50


 1648              		.loc 1 811 1 is_stmt 1 view -0
 1649              		.cfi_startproc
 1650              		@ args = 0, pretend = 0, frame = 0
 1651              		@ frame_needed = 0, uses_anonymous_args = 0
 811:Src/usbd_conf.c ****   HAL_Delay(Delay);
 1652              		.loc 1 811 1 is_stmt 0 view .LVU363
 1653 0000 08B5     		push	{r3, lr}
 1654              	.LCFI31:
 1655              		.cfi_def_cfa_offset 8
 1656              		.cfi_offset 3, -8
 1657              		.cfi_offset 14, -4
 812:Src/usbd_conf.c **** }
 1658              		.loc 1 812 3 is_stmt 1 view .LVU364
 1659 0002 FFF7FEFF 		bl	HAL_Delay
 1660              	.LVL174:
 813:Src/usbd_conf.c **** 
 1661              		.loc 1 813 1 is_stmt 0 view .LVU365
 1662 0006 08BD     		pop	{r3, pc}
 1663              		.cfi_endproc
 1664              	.LFE324:
 1666              		.section	.text.USBD_static_malloc,"ax",%progbits
 1667              		.align	1
 1668              		.global	USBD_static_malloc
 1669              		.syntax unified
 1670              		.thumb
 1671              		.thumb_func
 1672              		.fpu fpv4-sp-d16
 1674              	USBD_static_malloc:
 1675              	.LVL175:
 1676              	.LFB325:
 821:Src/usbd_conf.c ****   static uint32_t mem[(sizeof(USBD_CDC_HandleTypeDef)/4)+1];/* On 32-bit boundary */
 1677              		.loc 1 821 1 is_stmt 1 view -0
 1678              		.cfi_startproc
 1679              		@ args = 0, pretend = 0, frame = 0
 1680              		@ frame_needed = 0, uses_anonymous_args = 0
 1681              		@ link register save eliminated.
 822:Src/usbd_conf.c ****   return mem;
 1682              		.loc 1 822 3 view .LVU367
 823:Src/usbd_conf.c **** }
 1683              		.loc 1 823 3 view .LVU368
 824:Src/usbd_conf.c **** 
 1684              		.loc 1 824 1 is_stmt 0 view .LVU369
 1685 0000 0048     		ldr	r0, .L158
 1686              	.LVL176:
 824:Src/usbd_conf.c **** 
 1687              		.loc 1 824 1 view .LVU370
 1688 0002 7047     		bx	lr
 1689              	.L159:
 1690              		.align	2
 1691              	.L158:
 1692 0004 00000000 		.word	.LANCHOR0
 1693              		.cfi_endproc
 1694              	.LFE325:
 1696              		.section	.text.USBD_static_free,"ax",%progbits
 1697              		.align	1
 1698              		.global	USBD_static_free
 1699              		.syntax unified
ARM GAS  /tmp/ccnGFKtF.s 			page 51


 1700              		.thumb
 1701              		.thumb_func
 1702              		.fpu fpv4-sp-d16
 1704              	USBD_static_free:
 1705              	.LVL177:
 1706              	.LFB326:
 832:Src/usbd_conf.c **** 
 1707              		.loc 1 832 1 is_stmt 1 view -0
 1708              		.cfi_startproc
 1709              		@ args = 0, pretend = 0, frame = 0
 1710              		@ frame_needed = 0, uses_anonymous_args = 0
 1711              		@ link register save eliminated.
 834:Src/usbd_conf.c **** 
 1712              		.loc 1 834 1 view .LVU372
 1713 0000 7047     		bx	lr
 1714              		.cfi_endproc
 1715              	.LFE326:
 1717              		.comm	hpcd_USB_FS,756,4
 1718              		.section	.bss.mem.11410,"aw",%nobits
 1719              		.align	2
 1720              		.set	.LANCHOR0,. + 0
 1723              	mem.11410:
 1724 0000 00000000 		.space	544
 1724      00000000 
 1724      00000000 
 1724      00000000 
 1724      00000000 
 1725              		.text
 1726              	.Letext0:
 1727              		.file 2 "/opt/gcc-arm-none-eabi-9-2020-q2/arm-none-eabi/include/machine/_default_types.h"
 1728              		.file 3 "/opt/gcc-arm-none-eabi-9-2020-q2/arm-none-eabi/include/sys/_stdint.h"
 1729              		.file 4 "Drivers/CMSIS/Include/core_cm4.h"
 1730              		.file 5 "Drivers/CMSIS/Device/ST/STM32L4xx/Include/system_stm32l4xx.h"
 1731              		.file 6 "Drivers/CMSIS/Device/ST/STM32L4xx/Include/stm32l452xx.h"
 1732              		.file 7 "Drivers/CMSIS/Device/ST/STM32L4xx/Include/stm32l4xx.h"
 1733              		.file 8 "Drivers/STM32L4xx_HAL_Driver/Inc/stm32l4xx_hal_def.h"
 1734              		.file 9 "Drivers/STM32L4xx_HAL_Driver/Inc/stm32l4xx_hal_gpio.h"
 1735              		.file 10 "Drivers/STM32L4xx_HAL_Driver/Inc/stm32l4xx_hal_flash.h"
 1736              		.file 11 "Drivers/STM32L4xx_HAL_Driver/Inc/stm32l4xx_ll_usb.h"
 1737              		.file 12 "Drivers/STM32L4xx_HAL_Driver/Inc/stm32l4xx_hal_pcd.h"
 1738              		.file 13 "Drivers/STM32L4xx_HAL_Driver/Inc/stm32l4xx_hal.h"
 1739              		.file 14 "/opt/gcc-arm-none-eabi-9-2020-q2/lib/gcc/arm-none-eabi/9.3.1/include/stddef.h"
 1740              		.file 15 "/opt/gcc-arm-none-eabi-9-2020-q2/arm-none-eabi/include/sys/_types.h"
 1741              		.file 16 "/opt/gcc-arm-none-eabi-9-2020-q2/arm-none-eabi/include/sys/reent.h"
 1742              		.file 17 "/opt/gcc-arm-none-eabi-9-2020-q2/arm-none-eabi/include/sys/lock.h"
 1743              		.file 18 "Middlewares/ST/STM32_USB_Device_Library/Core/Inc/usbd_def.h"
 1744              		.file 19 "Middlewares/ST/STM32_USB_Device_Library/Class/CDC/Inc/usbd_cdc.h"
 1745              		.file 20 "Middlewares/ST/STM32_USB_Device_Library/Core/Inc/usbd_core.h"
 1746              		.file 21 "Drivers/STM32L4xx_HAL_Driver/Inc/stm32l4xx_hal_pwr_ex.h"
 1747              		.file 22 "Drivers/STM32L4xx_HAL_Driver/Inc/stm32l4xx_hal_pcd_ex.h"
 1748              		.file 23 "Drivers/STM32L4xx_HAL_Driver/Inc/stm32l4xx_hal_cortex.h"
ARM GAS  /tmp/ccnGFKtF.s 			page 52

